Component: ARM Compiler 5.06 update 7 (build 960) Tool: armlink [4d3601]

==============================================================================

Section Cross References

    startup_sky32b750.o(RESET) refers to startup_sky32b750.o(STACK) for __initial_sp
    startup_sky32b750.o(RESET) refers to startup_sky32b750.o(.text) for Reset_Handler
    startup_sky32b750.o(RESET) refers to system_sky32b750.o(i.NMI_Handler) for NMI_Handler
    startup_sky32b750.o(RESET) refers to port.o(.emb_text) for SVC_Handler
    startup_sky32b750.o(RESET) refers to irq_handler.o(i.SysTick_Handler) for SysTick_Handler
    startup_sky32b750.o(RESET) refers to bsp_uart.o(i.USCI4_IRQHandler) for USCI4_IRQHandler
    startup_sky32b750.o(RESET) refers to irq_handler.o(i.TMRB0_IRQHandler) for TMRB0_IRQHandler
    startup_sky32b750.o(RESET) refers to hal_ospi.o(i.DMA_IRQHandler) for DMA_IRQHandler
    startup_sky32b750.o(RESET) refers to bb_config.o(i.BB_IRQHandler) for BB_IRQHandler
    startup_sky32b750.o(.text) refers to system_sky32b750.o(i.SystemInit) for SystemInit
    startup_sky32b750.o(.text) refers to entry.o(.ARM.Collect$$$$00000000) for __main
    system_sky32b750.o(i.HRC_System_Clock_Update) refers to system_sky32b750.o(.data) for hrc_clk
    system_sky32b750.o(i.HXTAL_Caliber_LRC) refers to system_sky32b750.o(i.Get_SysClk_Config) for Get_SysClk_Config
    system_sky32b750.o(i.HXTAL_Caliber_LRC) refers to system_sky32b750.o(i.Set_Flash_WS) for Set_Flash_WS
    system_sky32b750.o(i.HXTAL_Caliber_LRC) refers to system_sky32b750.o(i.Set_PLL) for Set_PLL
    system_sky32b750.o(i.HXTAL_Caliber_LRC) refers to system_sky32b750.o(i.Set_SysClk_Div) for Set_SysClk_Div
    system_sky32b750.o(i.HXTAL_Caliber_LRC) refers to wdt.o(i.WDT_Open) for WDT_Open
    system_sky32b750.o(i.HXTAL_Caliber_LRC) refers to uldiv.o(.text) for __aeabi_uldivmod
    system_sky32b750.o(i.HXTAL_Caliber_LRC) refers to system_sky32b750.o(i.Set_SysClk_Config) for Set_SysClk_Config
    system_sky32b750.o(i.HXTAL_Caliber_LRC) refers to system_sky32b750.o(.data) for lrc_clk
    system_sky32b750.o(i.LRC_Caliber_HRC) refers to system_sky32b750.o(i.Get_SysClk_Config) for Get_SysClk_Config
    system_sky32b750.o(i.LRC_Caliber_HRC) refers to system_sky32b750.o(i.Set_SysClk_Div) for Set_SysClk_Div
    system_sky32b750.o(i.LRC_Caliber_HRC) refers to wdt.o(i.WDT_Open) for WDT_Open
    system_sky32b750.o(i.LRC_Caliber_HRC) refers to uldiv.o(.text) for __aeabi_uldivmod
    system_sky32b750.o(i.LRC_Caliber_HRC) refers to system_sky32b750.o(i.Set_SysClk_Config) for Set_SysClk_Config
    system_sky32b750.o(i.LRC_Caliber_HRC) refers to system_sky32b750.o(.data) for lrc_clk
    system_sky32b750.o(i.NMI_Handler) refers to system_sky32b750.o(.data) for WKU_FLAG_sta0
    system_sky32b750.o(i.PLL_System_Clock_Update) refers to system_sky32b750.o(.data) for pll_clk
    system_sky32b750.o(i.Set_PLL) refers to system_sky32b750.o(.data) for pll_clk
    system_sky32b750.o(i.Set_SysClk_Config) refers to system_sky32b750.o(i.Set_Flash_WS) for Set_Flash_WS
    system_sky32b750.o(i.Set_SysClk_Config) refers to system_sky32b750.o(i.Set_PLL) for Set_PLL
    system_sky32b750.o(i.Set_SysClk_Config) refers to system_sky32b750.o(i.Set_CanClk_Div) for Set_CanClk_Div
    system_sky32b750.o(i.Set_SysClk_Config) refers to system_sky32b750.o(i.Set_SysClk_Div) for Set_SysClk_Div
    system_sky32b750.o(i.SystemInit) refers to system_sky32b750.o(i.FPU_Enable) for FPU_Enable
    delay.o(i.Calib_SW_ms) refers to system_sky32b750.o(.data) for hclk
    delay.o(i.HW_Delay_ms) refers to system_sky32b750.o(.data) for hclk
    delay.o(i.HW_Delay_us) refers to system_sky32b750.o(.data) for hclk
    delay.o(i.SW_Delay_ms) refers to system_sky32b750.o(.data) for ms_step
    usci.o(i.USCI_SPI_Init) refers to usci.o(i.USCI_Clear_ESR) for USCI_Clear_ESR
    usci.o(i.USCI_SPI_Init) refers to usci.o(i.USCI_Clear_ISR) for USCI_Clear_ISR
    usci.o(i.USCI_SPI_Receive) refers to usci.o(i.USCI_Clear_ESR) for USCI_Clear_ESR
    usci.o(i.USCI_SPI_Receive) refers to usci.o(i.USCI_Clear_ISR) for USCI_Clear_ISR
    usci.o(i.USCI_SPI_Slave_Receive) refers to usci.o(i.USCI_Clear_ESR) for USCI_Clear_ESR
    usci.o(i.USCI_SPI_Slave_Receive) refers to usci.o(i.USCI_Clear_ISR) for USCI_Clear_ISR
    usci.o(i.USCI_SPI_Slave_Transmit) refers to usci.o(i.USCI_Clear_ESR) for USCI_Clear_ESR
    usci.o(i.USCI_SPI_Slave_Transmit) refers to usci.o(i.USCI_Clear_ISR) for USCI_Clear_ISR
    usci.o(i.USCI_SPI_TRx) refers to usci.o(i.USCI_Clear_ESR) for USCI_Clear_ESR
    usci.o(i.USCI_SPI_TRx) refers to usci.o(i.USCI_Clear_ISR) for USCI_Clear_ISR
    usci.o(i.USCI_SPI_TRx_Ext) refers to usci.o(i.USCI_Clear_ESR) for USCI_Clear_ESR
    usci.o(i.USCI_SPI_TRx_Ext) refers to usci.o(i.USCI_Clear_ISR) for USCI_Clear_ISR
    usci.o(i.USCI_SPI_TRx_Ext) refers to system_sky32b750.o(.data) for ms_step
    usci.o(i.USCI_SPI_Transmit) refers to usci.o(i.USCI_Clear_ESR) for USCI_Clear_ESR
    usci.o(i.USCI_SPI_Transmit) refers to usci.o(i.USCI_Clear_ISR) for USCI_Clear_ISR
    usci.o(i.USCI_SPI_Transmit_Ext) refers to usci.o(i.USCI_Clear_ESR) for USCI_Clear_ESR
    usci.o(i.USCI_SPI_Transmit_Ext) refers to usci.o(i.USCI_Clear_ISR) for USCI_Clear_ISR
    usci.o(i.USCI_SPI_Transmit_Ext) refers to system_sky32b750.o(.data) for ms_step
    usci.o(i.USCI_U7816_Init) refers to usci.o(i.USCI_Clear_ESR) for USCI_Clear_ESR
    usci.o(i.USCI_U7816_Init) refers to usci.o(i.USCI_Clear_ISR) for USCI_Clear_ISR
    usci.o(i.USCI_U7816_Receive) refers to usci.o(i.USCI_Clear_ESR) for USCI_Clear_ESR
    usci.o(i.USCI_U7816_Receive) refers to usci.o(i.USCI_Clear_ISR) for USCI_Clear_ISR
    usci.o(i.USCI_U7816_Transmit) refers to usci.o(i.USCI_Clear_ESR) for USCI_Clear_ESR
    usci.o(i.USCI_U7816_Transmit) refers to usci.o(i.USCI_Clear_ISR) for USCI_Clear_ISR
    usci.o(i.USCI_UART_Init) refers to usci.o(i.USCI_Clear_ESR) for USCI_Clear_ESR
    usci.o(i.USCI_UART_Init) refers to usci.o(i.USCI_Clear_ISR) for USCI_Clear_ISR
    usci.o(i.USCI_UART_Init) refers to system_sky32b750.o(.data) for pclk
    usci.o(i.USCI_UART_Receive) refers to usci.o(i.USCI_Clear_ESR) for USCI_Clear_ESR
    usci.o(i.USCI_UART_Receive) refers to usci.o(i.USCI_Clear_ISR) for USCI_Clear_ISR
    usci.o(i.USCI_UART_Transmit) refers to usci.o(i.USCI_Clear_ESR) for USCI_Clear_ESR
    usci.o(i.USCI_UART_Transmit) refers to usci.o(i.USCI_Clear_ISR) for USCI_Clear_ISR
    dma.o(i.DMA_Channel_Configure) refers to dma.o(i.DMA_Num2Ch) for DMA_Num2Ch
    dma.o(i.DMA_Channel_Disable) refers to dma.o(i.DMA_Num2Ch) for DMA_Num2Ch
    dma.o(i.DMA_Channel_Irq_Disable) refers to dma.o(i.DMA_Num2Ch) for DMA_Num2Ch
    dma.o(i.DMA_Channel_Irq_Enable) refers to dma.o(i.DMA_Num2Ch) for DMA_Num2Ch
    dma.o(i.DMA_Channel_Irq_IsEnable) refers to dma.o(i.DMA_Num2Ch) for DMA_Num2Ch
    dma.o(i.DMA_Init) refers to dma.o(i.DMA_Clear_All_Irq) for DMA_Clear_All_Irq
    dma.o(i.DMA_Init) refers to dma.o(i.DMA_Channel_Irq_Disable) for DMA_Channel_Irq_Disable
    dma.o(i.DMA_Init) refers to dma.o(i.DMA_Disable) for DMA_Disable
    wdt.o(i.WDT_Open) refers to wdt.o(i.WDT_Enable) for WDT_Enable
    wdt.o(i.WDT_Reset) refers to wdt.o(i.WDT_Disable) for WDT_Disable
    wdt.o(i.WDT_Set_ms) refers to wdt.o(i.WDT_Open) for WDT_Open
    wdt.o(i.WDT_Set_ms) refers to system_sky32b750.o(.data) for lrc_clk
    fadc.o(i.FADC_WriteW10T) refers to fadc.o(i.FADC_SPI_WriteSingle) for FADC_SPI_WriteSingle
    fadc.o(i.FADC_WriteW11T) refers to fadc.o(i.FADC_SPI_ReadSingle) for FADC_SPI_ReadSingle
    fadc.o(i.FADC_WriteW11T) refers to fadc.o(i.FADC_SPI_WriteSingle) for FADC_SPI_WriteSingle
    fadc.o(i.FADC_WriteW4T) refers to fadc.o(i.FADC_SPI_ReadSingle) for FADC_SPI_ReadSingle
    fadc.o(i.FADC_WriteW4T) refers to fadc.o(i.FADC_SPI_WriteSingle) for FADC_SPI_WriteSingle
    fadc.o(i.FADC_WriteW5T) refers to fadc.o(i.FADC_SPI_ReadSingle) for FADC_SPI_ReadSingle
    fadc.o(i.FADC_WriteW5T) refers to fadc.o(i.FADC_SPI_WriteSingle) for FADC_SPI_WriteSingle
    fadc.o(i.FADC_WriteW6T) refers to fadc.o(i.FADC_SPI_ReadSingle) for FADC_SPI_ReadSingle
    fadc.o(i.FADC_WriteW6T) refers to fadc.o(i.FADC_SPI_WriteSingle) for FADC_SPI_WriteSingle
    fadc.o(i.FADC_WriteW7T) refers to fadc.o(i.FADC_SPI_ReadSingle) for FADC_SPI_ReadSingle
    fadc.o(i.FADC_WriteW7T) refers to fadc.o(i.FADC_SPI_WriteSingle) for FADC_SPI_WriteSingle
    fadc.o(i.FADC_WriteW8T) refers to fadc.o(i.FADC_SPI_ReadSingle) for FADC_SPI_ReadSingle
    fadc.o(i.FADC_WriteW8T) refers to fadc.o(i.FADC_SPI_WriteSingle) for FADC_SPI_WriteSingle
    fadc.o(i.FADC_WriteW9T) refers to fadc.o(i.FADC_SPI_WriteSingle) for FADC_SPI_WriteSingle
    efc.o(i.EFC_Erase1Page) refers to efc.o(i.EFC_Get_ActualAddress) for EFC_Get_ActualAddress
    efc.o(i.EFC_Erase1Page_and_Check) refers to efc.o(i.EFC_Erase1Page) for EFC_Erase1Page
    efc.o(i.EFC_ReWrite) refers to efc.o(i.EFC_WriteInside1Page) for EFC_WriteInside1Page
    efc.o(i.EFC_Write1Byte) refers to efc.o(i.EFC_Write_Words) for EFC_Write_Words
    efc.o(i.EFC_Write1Page) refers to efc.o(i.EFC_Get_ActualAddress) for EFC_Get_ActualAddress
    efc.o(i.EFC_Write1Page_and_Check) refers to efc.o(i.EFC_Write1Page) for EFC_Write1Page
    efc.o(i.EFC_WriteInside1Page) refers to efc.o(i.EFC_Get_ActualAddress) for EFC_Get_ActualAddress
    efc.o(i.EFC_WriteInside1Page) refers to efc.o(.data) for flash_buf_32
    efc.o(i.EFC_Write_Bytes) refers to efc.o(i.EFC_Write_Words) for EFC_Write_Words
    efc.o(i.EFC_Write_Bytes) refers to efc.o(i.EFC_Write1Byte) for EFC_Write1Byte
    efc.o(i.EFC_Write_Words) refers to efc.o(i.EFC_Get_ActualAddress) for EFC_Get_ActualAddress
    rtc.o(i.RTC_Enable) refers to system_sky32b750.o(.data) for lrc_clk
    rtc.o(i.RTC_Enable) refers to rtc.o(.data) for rtc_clk
    rtc.o(i.RTC_Reset) refers to rtc.o(i.RTC_Disable) for RTC_Disable
    rtc.o(i.RTC_Wakeup_ms) refers to rtc.o(.data) for rtc_clk
    rtc.o(i.RTC_Wakeup_sec) refers to rtc.o(.data) for rtc_clk
    timerb.o(i.TMRB_Open) refers to system_sky32b750.o(.data) for pclk
    timerb.o(i.TMRB_Reset) refers to system_sky32b750.o(i.Peripheral_Reset) for Peripheral_Reset
    timerb.o(i.TMRB_mDelay) refers to system_sky32b750.o(.data) for pclk
    timerb.o(i.TMRB_mTimeout) refers to timerb.o(i.TMRB_Reset) for TMRB_Reset
    timerb.o(i.TMRB_mTimeout) refers to timerb.o(i.__NVIC_GetPriorityGrouping) for __NVIC_GetPriorityGrouping
    timerb.o(i.TMRB_mTimeout) refers to timerb.o(i.NVIC_EncodePriority) for NVIC_EncodePriority
    timerb.o(i.TMRB_mTimeout) refers to timerb.o(i.__NVIC_SetPriority) for __NVIC_SetPriority
    timerb.o(i.TMRB_mTimeout) refers to timerb.o(i.__NVIC_EnableIRQ) for __NVIC_EnableIRQ
    timerb.o(i.TMRB_mTimeout) refers to system_sky32b750.o(.data) for pclk
    timerb.o(i.TMRB_uDelay) refers to system_sky32b750.o(.data) for pclk
    timerb.o(i.TMRB_uTimeout) refers to timerb.o(i.TMRB_Reset) for TMRB_Reset
    timerb.o(i.TMRB_uTimeout) refers to timerb.o(i.__NVIC_GetPriorityGrouping) for __NVIC_GetPriorityGrouping
    timerb.o(i.TMRB_uTimeout) refers to timerb.o(i.NVIC_EncodePriority) for NVIC_EncodePriority
    timerb.o(i.TMRB_uTimeout) refers to timerb.o(i.__NVIC_SetPriority) for __NVIC_SetPriority
    timerb.o(i.TMRB_uTimeout) refers to timerb.o(i.__NVIC_EnableIRQ) for __NVIC_EnableIRQ
    timerb.o(i.TMRB_uTimeout) refers to system_sky32b750.o(.data) for pclk
    event_groups.o(i.vEventGroupClearBitsCallback) refers to event_groups.o(i.xEventGroupClearBits) for xEventGroupClearBits
    event_groups.o(i.vEventGroupDelete) refers to tasks.o(i.vTaskSuspendAll) for vTaskSuspendAll
    event_groups.o(i.vEventGroupDelete) refers to tasks.o(i.xTaskRemoveFromUnorderedEventList) for xTaskRemoveFromUnorderedEventList
    event_groups.o(i.vEventGroupDelete) refers to heap_4.o(i.vPortFree) for vPortFree
    event_groups.o(i.vEventGroupDelete) refers to tasks.o(i.xTaskResumeAll) for xTaskResumeAll
    event_groups.o(i.vEventGroupSetBitsCallback) refers to event_groups.o(i.xEventGroupSetBits) for xEventGroupSetBits
    event_groups.o(i.xEventGroupClearBits) refers to port.o(i.vPortEnterCritical) for vPortEnterCritical
    event_groups.o(i.xEventGroupClearBits) refers to port.o(i.vPortExitCritical) for vPortExitCritical
    event_groups.o(i.xEventGroupClearBitsFromISR) refers to timers.o(i.xTimerPendFunctionCallFromISR) for xTimerPendFunctionCallFromISR
    event_groups.o(i.xEventGroupClearBitsFromISR) refers to event_groups.o(i.vEventGroupClearBitsCallback) for vEventGroupClearBitsCallback
    event_groups.o(i.xEventGroupCreate) refers to heap_4.o(i.pvPortMalloc) for pvPortMalloc
    event_groups.o(i.xEventGroupCreate) refers to list.o(i.vListInitialise) for vListInitialise
    event_groups.o(i.xEventGroupSetBits) refers to tasks.o(i.vTaskSuspendAll) for vTaskSuspendAll
    event_groups.o(i.xEventGroupSetBits) refers to tasks.o(i.xTaskRemoveFromUnorderedEventList) for xTaskRemoveFromUnorderedEventList
    event_groups.o(i.xEventGroupSetBits) refers to tasks.o(i.xTaskResumeAll) for xTaskResumeAll
    event_groups.o(i.xEventGroupSetBitsFromISR) refers to timers.o(i.xTimerPendFunctionCallFromISR) for xTimerPendFunctionCallFromISR
    event_groups.o(i.xEventGroupSetBitsFromISR) refers to event_groups.o(i.vEventGroupSetBitsCallback) for vEventGroupSetBitsCallback
    event_groups.o(i.xEventGroupSync) refers to tasks.o(i.vTaskSuspendAll) for vTaskSuspendAll
    event_groups.o(i.xEventGroupSync) refers to event_groups.o(i.xEventGroupSetBits) for xEventGroupSetBits
    event_groups.o(i.xEventGroupSync) refers to tasks.o(i.vTaskPlaceOnUnorderedEventList) for vTaskPlaceOnUnorderedEventList
    event_groups.o(i.xEventGroupSync) refers to tasks.o(i.xTaskResumeAll) for xTaskResumeAll
    event_groups.o(i.xEventGroupSync) refers to tasks.o(i.uxTaskResetEventItemValue) for uxTaskResetEventItemValue
    event_groups.o(i.xEventGroupSync) refers to port.o(i.vPortEnterCritical) for vPortEnterCritical
    event_groups.o(i.xEventGroupSync) refers to port.o(i.vPortExitCritical) for vPortExitCritical
    event_groups.o(i.xEventGroupWaitBits) refers to tasks.o(i.vTaskSuspendAll) for vTaskSuspendAll
    event_groups.o(i.xEventGroupWaitBits) refers to event_groups.o(i.prvTestWaitCondition) for prvTestWaitCondition
    event_groups.o(i.xEventGroupWaitBits) refers to tasks.o(i.vTaskPlaceOnUnorderedEventList) for vTaskPlaceOnUnorderedEventList
    event_groups.o(i.xEventGroupWaitBits) refers to tasks.o(i.xTaskResumeAll) for xTaskResumeAll
    event_groups.o(i.xEventGroupWaitBits) refers to tasks.o(i.uxTaskResetEventItemValue) for uxTaskResetEventItemValue
    event_groups.o(i.xEventGroupWaitBits) refers to port.o(i.vPortEnterCritical) for vPortEnterCritical
    event_groups.o(i.xEventGroupWaitBits) refers to port.o(i.vPortExitCritical) for vPortExitCritical
    queue.o(i.pcQueueGetName) refers to queue.o(.bss) for xQueueRegistry
    queue.o(i.prvCopyDataFromQueue) refers to memcpya.o(.text) for __aeabi_memcpy
    queue.o(i.prvCopyDataToQueue) refers to tasks.o(i.xTaskPriorityDisinherit) for xTaskPriorityDisinherit
    queue.o(i.prvCopyDataToQueue) refers to memcpya.o(.text) for __aeabi_memcpy
    queue.o(i.prvInitialiseMutex) refers to queue.o(i.xQueueGenericSend) for xQueueGenericSend
    queue.o(i.prvInitialiseNewQueue) refers to queue.o(i.xQueueGenericReset) for xQueueGenericReset
    queue.o(i.prvIsQueueEmpty) refers to port.o(i.vPortEnterCritical) for vPortEnterCritical
    queue.o(i.prvIsQueueEmpty) refers to port.o(i.vPortExitCritical) for vPortExitCritical
    queue.o(i.prvIsQueueFull) refers to port.o(i.vPortEnterCritical) for vPortEnterCritical
    queue.o(i.prvIsQueueFull) refers to port.o(i.vPortExitCritical) for vPortExitCritical
    queue.o(i.prvNotifyQueueSetContainer) refers to queue.o(i.prvCopyDataToQueue) for prvCopyDataToQueue
    queue.o(i.prvNotifyQueueSetContainer) refers to tasks.o(i.xTaskRemoveFromEventList) for xTaskRemoveFromEventList
    queue.o(i.prvUnlockQueue) refers to port.o(i.vPortEnterCritical) for vPortEnterCritical
    queue.o(i.prvUnlockQueue) refers to queue.o(i.prvNotifyQueueSetContainer) for prvNotifyQueueSetContainer
    queue.o(i.prvUnlockQueue) refers to tasks.o(i.vTaskMissedYield) for vTaskMissedYield
    queue.o(i.prvUnlockQueue) refers to tasks.o(i.xTaskRemoveFromEventList) for xTaskRemoveFromEventList
    queue.o(i.prvUnlockQueue) refers to port.o(i.vPortExitCritical) for vPortExitCritical
    queue.o(i.uxQueueMessagesWaiting) refers to port.o(i.vPortEnterCritical) for vPortEnterCritical
    queue.o(i.uxQueueMessagesWaiting) refers to port.o(i.vPortExitCritical) for vPortExitCritical
    queue.o(i.uxQueueSpacesAvailable) refers to port.o(i.vPortEnterCritical) for vPortEnterCritical
    queue.o(i.uxQueueSpacesAvailable) refers to port.o(i.vPortExitCritical) for vPortExitCritical
    queue.o(i.vQueueAddToRegistry) refers to queue.o(.bss) for xQueueRegistry
    queue.o(i.vQueueDelete) refers to queue.o(i.vQueueUnregisterQueue) for vQueueUnregisterQueue
    queue.o(i.vQueueDelete) refers to heap_4.o(i.vPortFree) for vPortFree
    queue.o(i.vQueueUnregisterQueue) refers to queue.o(.bss) for xQueueRegistry
    queue.o(i.vQueueWaitForMessageRestricted) refers to port.o(i.vPortEnterCritical) for vPortEnterCritical
    queue.o(i.vQueueWaitForMessageRestricted) refers to port.o(i.vPortExitCritical) for vPortExitCritical
    queue.o(i.vQueueWaitForMessageRestricted) refers to tasks.o(i.vTaskPlaceOnEventListRestricted) for vTaskPlaceOnEventListRestricted
    queue.o(i.vQueueWaitForMessageRestricted) refers to queue.o(i.prvUnlockQueue) for prvUnlockQueue
    queue.o(i.xQueueAddToSet) refers to port.o(i.vPortEnterCritical) for vPortEnterCritical
    queue.o(i.xQueueAddToSet) refers to port.o(i.vPortExitCritical) for vPortExitCritical
    queue.o(i.xQueueCreateCountingSemaphore) refers to queue.o(i.xQueueGenericCreate) for xQueueGenericCreate
    queue.o(i.xQueueCreateMutex) refers to queue.o(i.xQueueGenericCreate) for xQueueGenericCreate
    queue.o(i.xQueueCreateMutex) refers to queue.o(i.prvInitialiseMutex) for prvInitialiseMutex
    queue.o(i.xQueueCreateSet) refers to queue.o(i.xQueueGenericCreate) for xQueueGenericCreate
    queue.o(i.xQueueGenericCreate) refers to heap_4.o(i.pvPortMalloc) for pvPortMalloc
    queue.o(i.xQueueGenericCreate) refers to queue.o(i.prvInitialiseNewQueue) for prvInitialiseNewQueue
    queue.o(i.xQueueGenericReceive) refers to port.o(i.vPortEnterCritical) for vPortEnterCritical
    queue.o(i.xQueueGenericReceive) refers to queue.o(i.prvCopyDataFromQueue) for prvCopyDataFromQueue
    queue.o(i.xQueueGenericReceive) refers to tasks.o(i.pvTaskIncrementMutexHeldCount) for pvTaskIncrementMutexHeldCount
    queue.o(i.xQueueGenericReceive) refers to tasks.o(i.xTaskRemoveFromEventList) for xTaskRemoveFromEventList
    queue.o(i.xQueueGenericReceive) refers to port.o(i.vPortExitCritical) for vPortExitCritical
    queue.o(i.xQueueGenericReceive) refers to tasks.o(i.vTaskSetTimeOutState) for vTaskSetTimeOutState
    queue.o(i.xQueueGenericReceive) refers to tasks.o(i.vTaskSuspendAll) for vTaskSuspendAll
    queue.o(i.xQueueGenericReceive) refers to tasks.o(i.xTaskCheckForTimeOut) for xTaskCheckForTimeOut
    queue.o(i.xQueueGenericReceive) refers to queue.o(i.prvIsQueueEmpty) for prvIsQueueEmpty
    queue.o(i.xQueueGenericReceive) refers to tasks.o(i.vTaskPriorityInherit) for vTaskPriorityInherit
    queue.o(i.xQueueGenericReceive) refers to tasks.o(i.vTaskPlaceOnEventList) for vTaskPlaceOnEventList
    queue.o(i.xQueueGenericReceive) refers to queue.o(i.prvUnlockQueue) for prvUnlockQueue
    queue.o(i.xQueueGenericReceive) refers to tasks.o(i.xTaskResumeAll) for xTaskResumeAll
    queue.o(i.xQueueGenericReset) refers to port.o(i.vPortEnterCritical) for vPortEnterCritical
    queue.o(i.xQueueGenericReset) refers to tasks.o(i.xTaskRemoveFromEventList) for xTaskRemoveFromEventList
    queue.o(i.xQueueGenericReset) refers to list.o(i.vListInitialise) for vListInitialise
    queue.o(i.xQueueGenericReset) refers to port.o(i.vPortExitCritical) for vPortExitCritical
    queue.o(i.xQueueGenericSend) refers to port.o(i.vPortEnterCritical) for vPortEnterCritical
    queue.o(i.xQueueGenericSend) refers to queue.o(i.prvCopyDataToQueue) for prvCopyDataToQueue
    queue.o(i.xQueueGenericSend) refers to queue.o(i.prvNotifyQueueSetContainer) for prvNotifyQueueSetContainer
    queue.o(i.xQueueGenericSend) refers to tasks.o(i.xTaskRemoveFromEventList) for xTaskRemoveFromEventList
    queue.o(i.xQueueGenericSend) refers to port.o(i.vPortExitCritical) for vPortExitCritical
    queue.o(i.xQueueGenericSend) refers to tasks.o(i.vTaskSetTimeOutState) for vTaskSetTimeOutState
    queue.o(i.xQueueGenericSend) refers to tasks.o(i.vTaskSuspendAll) for vTaskSuspendAll
    queue.o(i.xQueueGenericSend) refers to tasks.o(i.xTaskCheckForTimeOut) for xTaskCheckForTimeOut
    queue.o(i.xQueueGenericSend) refers to queue.o(i.prvIsQueueFull) for prvIsQueueFull
    queue.o(i.xQueueGenericSend) refers to tasks.o(i.vTaskPlaceOnEventList) for vTaskPlaceOnEventList
    queue.o(i.xQueueGenericSend) refers to queue.o(i.prvUnlockQueue) for prvUnlockQueue
    queue.o(i.xQueueGenericSend) refers to tasks.o(i.xTaskResumeAll) for xTaskResumeAll
    queue.o(i.xQueueGenericSendFromISR) refers to queue.o(i.prvCopyDataToQueue) for prvCopyDataToQueue
    queue.o(i.xQueueGenericSendFromISR) refers to queue.o(i.prvNotifyQueueSetContainer) for prvNotifyQueueSetContainer
    queue.o(i.xQueueGenericSendFromISR) refers to tasks.o(i.xTaskRemoveFromEventList) for xTaskRemoveFromEventList
    queue.o(i.xQueueGetMutexHolder) refers to port.o(i.vPortEnterCritical) for vPortEnterCritical
    queue.o(i.xQueueGetMutexHolder) refers to port.o(i.vPortExitCritical) for vPortExitCritical
    queue.o(i.xQueueGiveFromISR) refers to queue.o(i.prvNotifyQueueSetContainer) for prvNotifyQueueSetContainer
    queue.o(i.xQueueGiveFromISR) refers to tasks.o(i.xTaskRemoveFromEventList) for xTaskRemoveFromEventList
    queue.o(i.xQueueGiveMutexRecursive) refers to tasks.o(i.xTaskGetCurrentTaskHandle) for xTaskGetCurrentTaskHandle
    queue.o(i.xQueueGiveMutexRecursive) refers to queue.o(i.xQueueGenericSend) for xQueueGenericSend
    queue.o(i.xQueuePeekFromISR) refers to queue.o(i.prvCopyDataFromQueue) for prvCopyDataFromQueue
    queue.o(i.xQueueReceiveFromISR) refers to queue.o(i.prvCopyDataFromQueue) for prvCopyDataFromQueue
    queue.o(i.xQueueReceiveFromISR) refers to tasks.o(i.xTaskRemoveFromEventList) for xTaskRemoveFromEventList
    queue.o(i.xQueueRemoveFromSet) refers to port.o(i.vPortEnterCritical) for vPortEnterCritical
    queue.o(i.xQueueRemoveFromSet) refers to port.o(i.vPortExitCritical) for vPortExitCritical
    queue.o(i.xQueueSelectFromSet) refers to queue.o(i.xQueueGenericReceive) for xQueueGenericReceive
    queue.o(i.xQueueSelectFromSetFromISR) refers to queue.o(i.xQueueReceiveFromISR) for xQueueReceiveFromISR
    queue.o(i.xQueueTakeMutexRecursive) refers to tasks.o(i.xTaskGetCurrentTaskHandle) for xTaskGetCurrentTaskHandle
    queue.o(i.xQueueTakeMutexRecursive) refers to queue.o(i.xQueueGenericReceive) for xQueueGenericReceive
    tasks.o(i.eTaskGetState) refers to port.o(i.vPortEnterCritical) for vPortEnterCritical
    tasks.o(i.eTaskGetState) refers to port.o(i.vPortExitCritical) for vPortExitCritical
    tasks.o(i.eTaskGetState) refers to tasks.o(.data) for pxCurrentTCB
    tasks.o(i.eTaskGetState) refers to tasks.o(.bss) for xSuspendedTaskList
    tasks.o(i.pcTaskGetName) refers to tasks.o(.data) for pxCurrentTCB
    tasks.o(i.prvAddCurrentTaskToDelayedList) refers to list.o(i.uxListRemove) for uxListRemove
    tasks.o(i.prvAddCurrentTaskToDelayedList) refers to list.o(i.vListInsertEnd) for vListInsertEnd
    tasks.o(i.prvAddCurrentTaskToDelayedList) refers to list.o(i.vListInsert) for vListInsert
    tasks.o(i.prvAddCurrentTaskToDelayedList) refers to tasks.o(.data) for xTickCount
    tasks.o(i.prvAddCurrentTaskToDelayedList) refers to tasks.o(.bss) for xSuspendedTaskList
    tasks.o(i.prvAddNewTaskToReadyList) refers to port.o(i.vPortEnterCritical) for vPortEnterCritical
    tasks.o(i.prvAddNewTaskToReadyList) refers to tasks.o(i.prvInitialiseTaskLists) for prvInitialiseTaskLists
    tasks.o(i.prvAddNewTaskToReadyList) refers to list.o(i.vListInsertEnd) for vListInsertEnd
    tasks.o(i.prvAddNewTaskToReadyList) refers to port.o(i.vPortExitCritical) for vPortExitCritical
    tasks.o(i.prvAddNewTaskToReadyList) refers to tasks.o(.data) for uxCurrentNumberOfTasks
    tasks.o(i.prvAddNewTaskToReadyList) refers to tasks.o(.bss) for pxReadyTasksLists
    tasks.o(i.prvCheckTasksWaitingTermination) refers to tasks.o(i.vTaskSuspendAll) for vTaskSuspendAll
    tasks.o(i.prvCheckTasksWaitingTermination) refers to tasks.o(i.xTaskResumeAll) for xTaskResumeAll
    tasks.o(i.prvCheckTasksWaitingTermination) refers to port.o(i.vPortEnterCritical) for vPortEnterCritical
    tasks.o(i.prvCheckTasksWaitingTermination) refers to list.o(i.uxListRemove) for uxListRemove
    tasks.o(i.prvCheckTasksWaitingTermination) refers to port.o(i.vPortExitCritical) for vPortExitCritical
    tasks.o(i.prvCheckTasksWaitingTermination) refers to tasks.o(i.prvDeleteTCB) for prvDeleteTCB
    tasks.o(i.prvCheckTasksWaitingTermination) refers to tasks.o(.bss) for xTasksWaitingTermination
    tasks.o(i.prvCheckTasksWaitingTermination) refers to tasks.o(.data) for uxCurrentNumberOfTasks
    tasks.o(i.prvDeleteTCB) refers to heap_4.o(i.vPortFree) for vPortFree
    tasks.o(i.prvIdleTask) refers to tasks.o(i.prvCheckTasksWaitingTermination) for prvCheckTasksWaitingTermination
    tasks.o(i.prvIdleTask) refers to main.o(i.vApplicationIdleHook) for vApplicationIdleHook
    tasks.o(i.prvIdleTask) refers to tasks.o(.bss) for pxReadyTasksLists
    tasks.o(i.prvInitialiseNewTask) refers to memseta.o(.text) for __aeabi_memset
    tasks.o(i.prvInitialiseNewTask) refers to list.o(i.vListInitialiseItem) for vListInitialiseItem
    tasks.o(i.prvInitialiseNewTask) refers to port.o(i.pxPortInitialiseStack) for pxPortInitialiseStack
    tasks.o(i.prvInitialiseTaskLists) refers to list.o(i.vListInitialise) for vListInitialise
    tasks.o(i.prvInitialiseTaskLists) refers to tasks.o(.bss) for pxReadyTasksLists
    tasks.o(i.prvInitialiseTaskLists) refers to tasks.o(.data) for pxDelayedTaskList
    tasks.o(i.prvListTasksWithinSingleList) refers to tasks.o(i.vTaskGetInfo) for vTaskGetInfo
    tasks.o(i.prvResetNextTaskUnblockTime) refers to tasks.o(.data) for pxDelayedTaskList
    tasks.o(i.prvTaskIsTaskSuspended) refers to tasks.o(.bss) for xSuspendedTaskList
    tasks.o(i.prvWriteNameToBuffer) refers to strcpy.o(.text) for strcpy
    tasks.o(i.prvWriteNameToBuffer) refers to strlen.o(.text) for strlen
    tasks.o(i.pvTaskIncrementMutexHeldCount) refers to tasks.o(.data) for pxCurrentTCB
    tasks.o(i.ulTaskNotifyTake) refers to port.o(i.vPortEnterCritical) for vPortEnterCritical
    tasks.o(i.ulTaskNotifyTake) refers to tasks.o(i.prvAddCurrentTaskToDelayedList) for prvAddCurrentTaskToDelayedList
    tasks.o(i.ulTaskNotifyTake) refers to port.o(i.vPortExitCritical) for vPortExitCritical
    tasks.o(i.ulTaskNotifyTake) refers to tasks.o(.data) for pxCurrentTCB
    tasks.o(i.uxTaskGetNumberOfTasks) refers to tasks.o(.data) for uxCurrentNumberOfTasks
    tasks.o(i.uxTaskGetSystemState) refers to tasks.o(i.vTaskSuspendAll) for vTaskSuspendAll
    tasks.o(i.uxTaskGetSystemState) refers to tasks.o(i.prvListTasksWithinSingleList) for prvListTasksWithinSingleList
    tasks.o(i.uxTaskGetSystemState) refers to tasks.o(i.xTaskResumeAll) for xTaskResumeAll
    tasks.o(i.uxTaskGetSystemState) refers to tasks.o(.data) for uxCurrentNumberOfTasks
    tasks.o(i.uxTaskGetSystemState) refers to tasks.o(.bss) for pxReadyTasksLists
    tasks.o(i.uxTaskGetSystemState) refers to main.o(.data) for CPU_RunTime
    tasks.o(i.uxTaskPriorityGet) refers to port.o(i.vPortEnterCritical) for vPortEnterCritical
    tasks.o(i.uxTaskPriorityGet) refers to port.o(i.vPortExitCritical) for vPortExitCritical
    tasks.o(i.uxTaskPriorityGet) refers to tasks.o(.data) for pxCurrentTCB
    tasks.o(i.uxTaskPriorityGetFromISR) refers to tasks.o(.data) for pxCurrentTCB
    tasks.o(i.uxTaskResetEventItemValue) refers to tasks.o(.data) for pxCurrentTCB
    tasks.o(i.vTaskDelay) refers to tasks.o(i.vTaskSuspendAll) for vTaskSuspendAll
    tasks.o(i.vTaskDelay) refers to tasks.o(i.prvAddCurrentTaskToDelayedList) for prvAddCurrentTaskToDelayedList
    tasks.o(i.vTaskDelay) refers to tasks.o(i.xTaskResumeAll) for xTaskResumeAll
    tasks.o(i.vTaskDelayUntil) refers to tasks.o(i.vTaskSuspendAll) for vTaskSuspendAll
    tasks.o(i.vTaskDelayUntil) refers to tasks.o(i.prvAddCurrentTaskToDelayedList) for prvAddCurrentTaskToDelayedList
    tasks.o(i.vTaskDelayUntil) refers to tasks.o(i.xTaskResumeAll) for xTaskResumeAll
    tasks.o(i.vTaskDelayUntil) refers to tasks.o(.data) for xTickCount
    tasks.o(i.vTaskDelete) refers to port.o(i.vPortEnterCritical) for vPortEnterCritical
    tasks.o(i.vTaskDelete) refers to list.o(i.uxListRemove) for uxListRemove
    tasks.o(i.vTaskDelete) refers to list.o(i.vListInsertEnd) for vListInsertEnd
    tasks.o(i.vTaskDelete) refers to tasks.o(i.prvDeleteTCB) for prvDeleteTCB
    tasks.o(i.vTaskDelete) refers to tasks.o(i.prvResetNextTaskUnblockTime) for prvResetNextTaskUnblockTime
    tasks.o(i.vTaskDelete) refers to port.o(i.vPortExitCritical) for vPortExitCritical
    tasks.o(i.vTaskDelete) refers to tasks.o(.data) for pxCurrentTCB
    tasks.o(i.vTaskDelete) refers to tasks.o(.bss) for pxReadyTasksLists
    tasks.o(i.vTaskEndScheduler) refers to port.o(i.vPortEndScheduler) for vPortEndScheduler
    tasks.o(i.vTaskEndScheduler) refers to tasks.o(.data) for xSchedulerRunning
    tasks.o(i.vTaskGetInfo) refers to tasks.o(i.vTaskSuspendAll) for vTaskSuspendAll
    tasks.o(i.vTaskGetInfo) refers to tasks.o(i.xTaskResumeAll) for xTaskResumeAll
    tasks.o(i.vTaskGetInfo) refers to tasks.o(i.eTaskGetState) for eTaskGetState
    tasks.o(i.vTaskGetInfo) refers to tasks.o(i.prvTaskCheckFreeStackSpace) for prvTaskCheckFreeStackSpace
    tasks.o(i.vTaskGetInfo) refers to tasks.o(.data) for pxCurrentTCB
    tasks.o(i.vTaskGetRunTimeStats) refers to heap_4.o(i.pvPortMalloc) for pvPortMalloc
    tasks.o(i.vTaskGetRunTimeStats) refers to tasks.o(i.uxTaskGetSystemState) for uxTaskGetSystemState
    tasks.o(i.vTaskGetRunTimeStats) refers to tasks.o(i.prvWriteNameToBuffer) for prvWriteNameToBuffer
    tasks.o(i.vTaskGetRunTimeStats) refers to printf8.o(i.__0sprintf$8) for __2sprintf
    tasks.o(i.vTaskGetRunTimeStats) refers to strlen.o(.text) for strlen
    tasks.o(i.vTaskGetRunTimeStats) refers to heap_4.o(i.vPortFree) for vPortFree
    tasks.o(i.vTaskGetRunTimeStats) refers to tasks.o(.data) for uxCurrentNumberOfTasks
    tasks.o(i.vTaskList) refers to heap_4.o(i.pvPortMalloc) for pvPortMalloc
    tasks.o(i.vTaskList) refers to tasks.o(i.uxTaskGetSystemState) for uxTaskGetSystemState
    tasks.o(i.vTaskList) refers to tasks.o(i.prvWriteNameToBuffer) for prvWriteNameToBuffer
    tasks.o(i.vTaskList) refers to printf8.o(i.__0sprintf$8) for __2sprintf
    tasks.o(i.vTaskList) refers to strlen.o(.text) for strlen
    tasks.o(i.vTaskList) refers to heap_4.o(i.vPortFree) for vPortFree
    tasks.o(i.vTaskList) refers to tasks.o(.data) for uxCurrentNumberOfTasks
    tasks.o(i.vTaskMissedYield) refers to tasks.o(.data) for xYieldPending
    tasks.o(i.vTaskNotifyGiveFromISR) refers to list.o(i.uxListRemove) for uxListRemove
    tasks.o(i.vTaskNotifyGiveFromISR) refers to list.o(i.vListInsertEnd) for vListInsertEnd
    tasks.o(i.vTaskNotifyGiveFromISR) refers to tasks.o(.data) for uxSchedulerSuspended
    tasks.o(i.vTaskNotifyGiveFromISR) refers to tasks.o(.bss) for pxReadyTasksLists
    tasks.o(i.vTaskPlaceOnEventList) refers to list.o(i.vListInsert) for vListInsert
    tasks.o(i.vTaskPlaceOnEventList) refers to tasks.o(i.prvAddCurrentTaskToDelayedList) for prvAddCurrentTaskToDelayedList
    tasks.o(i.vTaskPlaceOnEventList) refers to tasks.o(.data) for pxCurrentTCB
    tasks.o(i.vTaskPlaceOnEventListRestricted) refers to list.o(i.vListInsertEnd) for vListInsertEnd
    tasks.o(i.vTaskPlaceOnEventListRestricted) refers to tasks.o(i.prvAddCurrentTaskToDelayedList) for prvAddCurrentTaskToDelayedList
    tasks.o(i.vTaskPlaceOnEventListRestricted) refers to tasks.o(.data) for pxCurrentTCB
    tasks.o(i.vTaskPlaceOnUnorderedEventList) refers to list.o(i.vListInsertEnd) for vListInsertEnd
    tasks.o(i.vTaskPlaceOnUnorderedEventList) refers to tasks.o(i.prvAddCurrentTaskToDelayedList) for prvAddCurrentTaskToDelayedList
    tasks.o(i.vTaskPlaceOnUnorderedEventList) refers to tasks.o(.data) for pxCurrentTCB
    tasks.o(i.vTaskPriorityInherit) refers to list.o(i.uxListRemove) for uxListRemove
    tasks.o(i.vTaskPriorityInherit) refers to list.o(i.vListInsertEnd) for vListInsertEnd
    tasks.o(i.vTaskPriorityInherit) refers to tasks.o(.data) for pxCurrentTCB
    tasks.o(i.vTaskPriorityInherit) refers to tasks.o(.bss) for pxReadyTasksLists
    tasks.o(i.vTaskPrioritySet) refers to port.o(i.vPortEnterCritical) for vPortEnterCritical
    tasks.o(i.vTaskPrioritySet) refers to list.o(i.uxListRemove) for uxListRemove
    tasks.o(i.vTaskPrioritySet) refers to list.o(i.vListInsertEnd) for vListInsertEnd
    tasks.o(i.vTaskPrioritySet) refers to port.o(i.vPortExitCritical) for vPortExitCritical
    tasks.o(i.vTaskPrioritySet) refers to tasks.o(.data) for pxCurrentTCB
    tasks.o(i.vTaskPrioritySet) refers to tasks.o(.bss) for pxReadyTasksLists
    tasks.o(i.vTaskResume) refers to port.o(i.vPortEnterCritical) for vPortEnterCritical
    tasks.o(i.vTaskResume) refers to tasks.o(i.prvTaskIsTaskSuspended) for prvTaskIsTaskSuspended
    tasks.o(i.vTaskResume) refers to list.o(i.uxListRemove) for uxListRemove
    tasks.o(i.vTaskResume) refers to list.o(i.vListInsertEnd) for vListInsertEnd
    tasks.o(i.vTaskResume) refers to port.o(i.vPortExitCritical) for vPortExitCritical
    tasks.o(i.vTaskResume) refers to tasks.o(.data) for pxCurrentTCB
    tasks.o(i.vTaskResume) refers to tasks.o(.bss) for pxReadyTasksLists
    tasks.o(i.vTaskSetTimeOutState) refers to tasks.o(.data) for xNumOfOverflows
    tasks.o(i.vTaskStartScheduler) refers to tasks.o(i.xTaskCreate) for xTaskCreate
    tasks.o(i.vTaskStartScheduler) refers to timers.o(i.xTimerCreateTimerTask) for xTimerCreateTimerTask
    tasks.o(i.vTaskStartScheduler) refers to port.o(i.xPortStartScheduler) for xPortStartScheduler
    tasks.o(i.vTaskStartScheduler) refers to tasks.o(.data) for xIdleTaskHandle
    tasks.o(i.vTaskStartScheduler) refers to tasks.o(i.prvIdleTask) for prvIdleTask
    tasks.o(i.vTaskStartScheduler) refers to main.o(.data) for CPU_RunTime
    tasks.o(i.vTaskSuspend) refers to port.o(i.vPortEnterCritical) for vPortEnterCritical
    tasks.o(i.vTaskSuspend) refers to list.o(i.uxListRemove) for uxListRemove
    tasks.o(i.vTaskSuspend) refers to list.o(i.vListInsertEnd) for vListInsertEnd
    tasks.o(i.vTaskSuspend) refers to port.o(i.vPortExitCritical) for vPortExitCritical
    tasks.o(i.vTaskSuspend) refers to tasks.o(i.prvResetNextTaskUnblockTime) for prvResetNextTaskUnblockTime
    tasks.o(i.vTaskSuspend) refers to tasks.o(i.vTaskSwitchContext) for vTaskSwitchContext
    tasks.o(i.vTaskSuspend) refers to tasks.o(.data) for pxCurrentTCB
    tasks.o(i.vTaskSuspend) refers to tasks.o(.bss) for pxReadyTasksLists
    tasks.o(i.vTaskSuspendAll) refers to tasks.o(.data) for uxSchedulerSuspended
    tasks.o(i.vTaskSwitchContext) refers to tasks.o(.data) for uxSchedulerSuspended
    tasks.o(i.vTaskSwitchContext) refers to main.o(.data) for CPU_RunTime
    tasks.o(i.vTaskSwitchContext) refers to tasks.o(.bss) for pxReadyTasksLists
    tasks.o(i.xTaskCheckForTimeOut) refers to port.o(i.vPortEnterCritical) for vPortEnterCritical
    tasks.o(i.xTaskCheckForTimeOut) refers to tasks.o(i.vTaskSetTimeOutState) for vTaskSetTimeOutState
    tasks.o(i.xTaskCheckForTimeOut) refers to port.o(i.vPortExitCritical) for vPortExitCritical
    tasks.o(i.xTaskCheckForTimeOut) refers to tasks.o(.data) for xTickCount
    tasks.o(i.xTaskCreate) refers to heap_4.o(i.pvPortMalloc) for pvPortMalloc
    tasks.o(i.xTaskCreate) refers to heap_4.o(i.vPortFree) for vPortFree
    tasks.o(i.xTaskCreate) refers to tasks.o(i.prvInitialiseNewTask) for prvInitialiseNewTask
    tasks.o(i.xTaskCreate) refers to tasks.o(i.prvAddNewTaskToReadyList) for prvAddNewTaskToReadyList
    tasks.o(i.xTaskGenericNotify) refers to port.o(i.vPortEnterCritical) for vPortEnterCritical
    tasks.o(i.xTaskGenericNotify) refers to list.o(i.uxListRemove) for uxListRemove
    tasks.o(i.xTaskGenericNotify) refers to list.o(i.vListInsertEnd) for vListInsertEnd
    tasks.o(i.xTaskGenericNotify) refers to port.o(i.vPortExitCritical) for vPortExitCritical
    tasks.o(i.xTaskGenericNotify) refers to tasks.o(.data) for uxTopReadyPriority
    tasks.o(i.xTaskGenericNotify) refers to tasks.o(.bss) for pxReadyTasksLists
    tasks.o(i.xTaskGenericNotifyFromISR) refers to list.o(i.uxListRemove) for uxListRemove
    tasks.o(i.xTaskGenericNotifyFromISR) refers to list.o(i.vListInsertEnd) for vListInsertEnd
    tasks.o(i.xTaskGenericNotifyFromISR) refers to tasks.o(.data) for uxSchedulerSuspended
    tasks.o(i.xTaskGenericNotifyFromISR) refers to tasks.o(.bss) for pxReadyTasksLists
    tasks.o(i.xTaskGetCurrentTaskHandle) refers to tasks.o(.data) for pxCurrentTCB
    tasks.o(i.xTaskGetSchedulerState) refers to tasks.o(.data) for xSchedulerRunning
    tasks.o(i.xTaskGetTickCount) refers to tasks.o(.data) for xTickCount
    tasks.o(i.xTaskGetTickCountFromISR) refers to tasks.o(.data) for xTickCount
    tasks.o(i.xTaskIncrementTick) refers to tasks.o(i.prvResetNextTaskUnblockTime) for prvResetNextTaskUnblockTime
    tasks.o(i.xTaskIncrementTick) refers to list.o(i.uxListRemove) for uxListRemove
    tasks.o(i.xTaskIncrementTick) refers to list.o(i.vListInsertEnd) for vListInsertEnd
    tasks.o(i.xTaskIncrementTick) refers to tasks.o(.data) for uxSchedulerSuspended
    tasks.o(i.xTaskIncrementTick) refers to tasks.o(.bss) for pxReadyTasksLists
    tasks.o(i.xTaskNotifyStateClear) refers to port.o(i.vPortEnterCritical) for vPortEnterCritical
    tasks.o(i.xTaskNotifyStateClear) refers to port.o(i.vPortExitCritical) for vPortExitCritical
    tasks.o(i.xTaskNotifyStateClear) refers to tasks.o(.data) for pxCurrentTCB
    tasks.o(i.xTaskNotifyWait) refers to port.o(i.vPortEnterCritical) for vPortEnterCritical
    tasks.o(i.xTaskNotifyWait) refers to tasks.o(i.prvAddCurrentTaskToDelayedList) for prvAddCurrentTaskToDelayedList
    tasks.o(i.xTaskNotifyWait) refers to port.o(i.vPortExitCritical) for vPortExitCritical
    tasks.o(i.xTaskNotifyWait) refers to tasks.o(.data) for pxCurrentTCB
    tasks.o(i.xTaskPriorityDisinherit) refers to list.o(i.uxListRemove) for uxListRemove
    tasks.o(i.xTaskPriorityDisinherit) refers to list.o(i.vListInsertEnd) for vListInsertEnd
    tasks.o(i.xTaskPriorityDisinherit) refers to tasks.o(.bss) for pxReadyTasksLists
    tasks.o(i.xTaskPriorityDisinherit) refers to tasks.o(.data) for uxTopReadyPriority
    tasks.o(i.xTaskRemoveFromEventList) refers to list.o(i.uxListRemove) for uxListRemove
    tasks.o(i.xTaskRemoveFromEventList) refers to list.o(i.vListInsertEnd) for vListInsertEnd
    tasks.o(i.xTaskRemoveFromEventList) refers to tasks.o(.data) for uxSchedulerSuspended
    tasks.o(i.xTaskRemoveFromEventList) refers to tasks.o(.bss) for pxReadyTasksLists
    tasks.o(i.xTaskRemoveFromUnorderedEventList) refers to list.o(i.uxListRemove) for uxListRemove
    tasks.o(i.xTaskRemoveFromUnorderedEventList) refers to list.o(i.vListInsertEnd) for vListInsertEnd
    tasks.o(i.xTaskRemoveFromUnorderedEventList) refers to tasks.o(.data) for uxTopReadyPriority
    tasks.o(i.xTaskRemoveFromUnorderedEventList) refers to tasks.o(.bss) for pxReadyTasksLists
    tasks.o(i.xTaskResumeAll) refers to port.o(i.vPortEnterCritical) for vPortEnterCritical
    tasks.o(i.xTaskResumeAll) refers to list.o(i.uxListRemove) for uxListRemove
    tasks.o(i.xTaskResumeAll) refers to list.o(i.vListInsertEnd) for vListInsertEnd
    tasks.o(i.xTaskResumeAll) refers to tasks.o(i.prvResetNextTaskUnblockTime) for prvResetNextTaskUnblockTime
    tasks.o(i.xTaskResumeAll) refers to tasks.o(i.xTaskIncrementTick) for xTaskIncrementTick
    tasks.o(i.xTaskResumeAll) refers to port.o(i.vPortExitCritical) for vPortExitCritical
    tasks.o(i.xTaskResumeAll) refers to tasks.o(.data) for uxSchedulerSuspended
    tasks.o(i.xTaskResumeAll) refers to tasks.o(.bss) for xPendingReadyList
    tasks.o(i.xTaskResumeFromISR) refers to tasks.o(i.prvTaskIsTaskSuspended) for prvTaskIsTaskSuspended
    tasks.o(i.xTaskResumeFromISR) refers to list.o(i.uxListRemove) for uxListRemove
    tasks.o(i.xTaskResumeFromISR) refers to list.o(i.vListInsertEnd) for vListInsertEnd
    tasks.o(i.xTaskResumeFromISR) refers to tasks.o(.data) for uxSchedulerSuspended
    tasks.o(i.xTaskResumeFromISR) refers to tasks.o(.bss) for pxReadyTasksLists
    timers.o(i.prvCheckForValidListAndQueue) refers to port.o(i.vPortEnterCritical) for vPortEnterCritical
    timers.o(i.prvCheckForValidListAndQueue) refers to list.o(i.vListInitialise) for vListInitialise
    timers.o(i.prvCheckForValidListAndQueue) refers to queue.o(i.xQueueGenericCreate) for xQueueGenericCreate
    timers.o(i.prvCheckForValidListAndQueue) refers to queue.o(i.vQueueAddToRegistry) for vQueueAddToRegistry
    timers.o(i.prvCheckForValidListAndQueue) refers to port.o(i.vPortExitCritical) for vPortExitCritical
    timers.o(i.prvCheckForValidListAndQueue) refers to timers.o(.data) for xTimerQueue
    timers.o(i.prvCheckForValidListAndQueue) refers to timers.o(.bss) for xActiveTimerList1
    timers.o(i.prvGetNextExpireTime) refers to timers.o(.data) for pxCurrentTimerList
    timers.o(i.prvInitialiseNewTimer) refers to timers.o(i.prvCheckForValidListAndQueue) for prvCheckForValidListAndQueue
    timers.o(i.prvInitialiseNewTimer) refers to list.o(i.vListInitialiseItem) for vListInitialiseItem
    timers.o(i.prvInsertTimerInActiveList) refers to list.o(i.vListInsert) for vListInsert
    timers.o(i.prvInsertTimerInActiveList) refers to timers.o(.data) for pxOverflowTimerList
    timers.o(i.prvProcessExpiredTimer) refers to list.o(i.uxListRemove) for uxListRemove
    timers.o(i.prvProcessExpiredTimer) refers to timers.o(i.prvInsertTimerInActiveList) for prvInsertTimerInActiveList
    timers.o(i.prvProcessExpiredTimer) refers to timers.o(i.xTimerGenericCommand) for xTimerGenericCommand
    timers.o(i.prvProcessExpiredTimer) refers to timers.o(.data) for pxCurrentTimerList
    timers.o(i.prvProcessReceivedCommands) refers to list.o(i.uxListRemove) for uxListRemove
    timers.o(i.prvProcessReceivedCommands) refers to timers.o(i.prvSampleTimeNow) for prvSampleTimeNow
    timers.o(i.prvProcessReceivedCommands) refers to timers.o(i.prvInsertTimerInActiveList) for prvInsertTimerInActiveList
    timers.o(i.prvProcessReceivedCommands) refers to timers.o(i.xTimerGenericCommand) for xTimerGenericCommand
    timers.o(i.prvProcessReceivedCommands) refers to heap_4.o(i.vPortFree) for vPortFree
    timers.o(i.prvProcessReceivedCommands) refers to queue.o(i.xQueueGenericReceive) for xQueueGenericReceive
    timers.o(i.prvProcessReceivedCommands) refers to timers.o(.data) for xTimerQueue
    timers.o(i.prvProcessTimerOrBlockTask) refers to tasks.o(i.vTaskSuspendAll) for vTaskSuspendAll
    timers.o(i.prvProcessTimerOrBlockTask) refers to timers.o(i.prvSampleTimeNow) for prvSampleTimeNow
    timers.o(i.prvProcessTimerOrBlockTask) refers to tasks.o(i.xTaskResumeAll) for xTaskResumeAll
    timers.o(i.prvProcessTimerOrBlockTask) refers to timers.o(i.prvProcessExpiredTimer) for prvProcessExpiredTimer
    timers.o(i.prvProcessTimerOrBlockTask) refers to queue.o(i.vQueueWaitForMessageRestricted) for vQueueWaitForMessageRestricted
    timers.o(i.prvProcessTimerOrBlockTask) refers to timers.o(.data) for pxOverflowTimerList
    timers.o(i.prvSampleTimeNow) refers to tasks.o(i.xTaskGetTickCount) for xTaskGetTickCount
    timers.o(i.prvSampleTimeNow) refers to timers.o(i.prvSwitchTimerLists) for prvSwitchTimerLists
    timers.o(i.prvSampleTimeNow) refers to timers.o(.data) for xLastTime
    timers.o(i.prvSwitchTimerLists) refers to list.o(i.uxListRemove) for uxListRemove
    timers.o(i.prvSwitchTimerLists) refers to list.o(i.vListInsert) for vListInsert
    timers.o(i.prvSwitchTimerLists) refers to timers.o(i.xTimerGenericCommand) for xTimerGenericCommand
    timers.o(i.prvSwitchTimerLists) refers to timers.o(.data) for pxCurrentTimerList
    timers.o(i.prvTimerTask) refers to timers.o(i.prvGetNextExpireTime) for prvGetNextExpireTime
    timers.o(i.prvTimerTask) refers to timers.o(i.prvProcessTimerOrBlockTask) for prvProcessTimerOrBlockTask
    timers.o(i.prvTimerTask) refers to timers.o(i.prvProcessReceivedCommands) for prvProcessReceivedCommands
    timers.o(i.pvTimerGetTimerID) refers to port.o(i.vPortEnterCritical) for vPortEnterCritical
    timers.o(i.pvTimerGetTimerID) refers to port.o(i.vPortExitCritical) for vPortExitCritical
    timers.o(i.vTimerSetTimerID) refers to port.o(i.vPortEnterCritical) for vPortEnterCritical
    timers.o(i.vTimerSetTimerID) refers to port.o(i.vPortExitCritical) for vPortExitCritical
    timers.o(i.xTimerCreate) refers to heap_4.o(i.pvPortMalloc) for pvPortMalloc
    timers.o(i.xTimerCreate) refers to timers.o(i.prvInitialiseNewTimer) for prvInitialiseNewTimer
    timers.o(i.xTimerCreateTimerTask) refers to timers.o(i.prvCheckForValidListAndQueue) for prvCheckForValidListAndQueue
    timers.o(i.xTimerCreateTimerTask) refers to tasks.o(i.xTaskCreate) for xTaskCreate
    timers.o(i.xTimerCreateTimerTask) refers to timers.o(.data) for xTimerQueue
    timers.o(i.xTimerCreateTimerTask) refers to timers.o(i.prvTimerTask) for prvTimerTask
    timers.o(i.xTimerGenericCommand) refers to tasks.o(i.xTaskGetSchedulerState) for xTaskGetSchedulerState
    timers.o(i.xTimerGenericCommand) refers to queue.o(i.xQueueGenericSend) for xQueueGenericSend
    timers.o(i.xTimerGenericCommand) refers to queue.o(i.xQueueGenericSendFromISR) for xQueueGenericSendFromISR
    timers.o(i.xTimerGenericCommand) refers to timers.o(.data) for xTimerQueue
    timers.o(i.xTimerGetTimerDaemonTaskHandle) refers to timers.o(.data) for xTimerTaskHandle
    timers.o(i.xTimerIsTimerActive) refers to port.o(i.vPortEnterCritical) for vPortEnterCritical
    timers.o(i.xTimerIsTimerActive) refers to port.o(i.vPortExitCritical) for vPortExitCritical
    timers.o(i.xTimerPendFunctionCall) refers to queue.o(i.xQueueGenericSend) for xQueueGenericSend
    timers.o(i.xTimerPendFunctionCall) refers to timers.o(.data) for xTimerQueue
    timers.o(i.xTimerPendFunctionCallFromISR) refers to queue.o(i.xQueueGenericSendFromISR) for xQueueGenericSendFromISR
    timers.o(i.xTimerPendFunctionCallFromISR) refers to timers.o(.data) for xTimerQueue
    heap_4.o(i.prvHeapInit) refers to heap_4.o(.ARM.__AT_0x20004000) for ucHeap
    heap_4.o(i.prvHeapInit) refers to heap_4.o(.data) for xStart
    heap_4.o(i.prvInsertBlockIntoFreeList) refers to heap_4.o(.data) for xStart
    heap_4.o(i.pvPortMalloc) refers to tasks.o(i.vTaskSuspendAll) for vTaskSuspendAll
    heap_4.o(i.pvPortMalloc) refers to heap_4.o(i.prvHeapInit) for prvHeapInit
    heap_4.o(i.pvPortMalloc) refers to heap_4.o(i.prvInsertBlockIntoFreeList) for prvInsertBlockIntoFreeList
    heap_4.o(i.pvPortMalloc) refers to tasks.o(i.xTaskResumeAll) for xTaskResumeAll
    heap_4.o(i.pvPortMalloc) refers to heap_4.o(.data) for pxEnd
    heap_4.o(i.vPortFree) refers to tasks.o(i.vTaskSuspendAll) for vTaskSuspendAll
    heap_4.o(i.vPortFree) refers to heap_4.o(i.prvInsertBlockIntoFreeList) for prvInsertBlockIntoFreeList
    heap_4.o(i.vPortFree) refers to tasks.o(i.xTaskResumeAll) for xTaskResumeAll
    heap_4.o(i.vPortFree) refers to heap_4.o(.data) for xBlockAllocatedBit
    heap_4.o(i.xPortGetFreeHeapSize) refers to heap_4.o(.data) for xFreeBytesRemaining
    heap_4.o(i.xPortGetMinimumEverFreeHeapSize) refers to heap_4.o(.data) for xMinimumEverFreeBytesRemaining
    port.o(.emb_text) refers to tasks.o(i.vTaskSwitchContext) for vTaskSwitchContext
    port.o(.emb_text) refers to tasks.o(.data) for pxCurrentTCB
    port.o(i.pxPortInitialiseStack) refers to port.o(i.prvTaskExitError) for prvTaskExitError
    port.o(i.vPortEnterCritical) refers to port.o(.data) for uxCriticalNesting
    port.o(i.vPortExitCritical) refers to port.o(.data) for uxCriticalNesting
    port.o(i.vPortSetupTimerInterrupt) refers to system_sky32b750.o(.data) for sys_clk
    port.o(i.xPortStartScheduler) refers to port.o(i.vPortSetupTimerInterrupt) for vPortSetupTimerInterrupt
    port.o(i.xPortStartScheduler) refers to port.o(.emb_text) for __asm___6_port_c_39a90d8d__prvEnableVFP
    port.o(i.xPortStartScheduler) refers to port.o(.data) for uxCriticalNesting
    port.o(i.xPortSysTickHandler) refers to tasks.o(i.xTaskIncrementTick) for xTaskIncrementTick
    bsp_adc.o(i.BSP_ADC_Init) refers to hal_delay.o(i.Cnt_Delay_ms) for Cnt_Delay_ms
    bsp_adc.o(i.BSP_ADC_Init) refers to fadc.o(i.FADC_SPI_WriteSingle) for FADC_SPI_WriteSingle
    bsp_adc.o(i.BSP_ADC_Init) refers to gpio.o(i.GPIO_AE_Ctrl) for GPIO_AE_Ctrl
    bsp_gpio.o(i.BSP_ChipEn) refers to hal_delay.o(i.Cnt_Delay_ms) for Cnt_Delay_ms
    bsp_gpio.o(i.BSP_GPIO_Init) refers to gpio.o(i.GPIO_SetMode) for GPIO_SetMode
    bsp_spi.o(i.BSP_SPI_Init) refers to gpio.o(i.GPIO_PullUp) for GPIO_PullUp
    bsp_spi.o(i.BSP_SPI_Init) refers to pinmux.o(i.PinMux_Set) for PinMux_Set
    bsp_spi.o(i.BSP_SPI_Init) refers to usci.o(i.USCI_SPI_Init) for USCI_SPI_Init
    bsp_spi.o(i.BSP_SPI_Init) refers to bsp_spi.o(.bss) for SPI0
    bsp_uart.o(i.BSP_UART_Init) refers to pinmux.o(i.PinMux_Set) for PinMux_Set
    bsp_uart.o(i.BSP_UART_Init) refers to usci.o(i.USCI_UART_Init) for USCI_UART_Init
    bsp_uart.o(i.BSP_UART_Init) refers to memseta.o(.text) for __aeabi_memclr4
    bsp_uart.o(i.BSP_UART_Init) refers to bsp_uart.o(.bss) for UART0
    bsp_uart.o(i.UART_Transmit_Bytes) refers to usci.o(i.USCI_UART_Transmit) for USCI_UART_Transmit
    bsp_uart.o(i.USCI4_IRQHandler) refers to hal_wdt.o(i.WDT_RstNow) for WDT_RstNow
    bsp_uart.o(i.USCI4_IRQHandler) refers to printf8.o(i.__0printf$8) for __2printf
    bsp_uart.o(i.USCI4_IRQHandler) refers to paramconfig.o(.bss) for stFlashParam
    bsp_uart.o(i.USCI4_IRQHandler) refers to bsp_uart.o(.bss) for strUart
    bsp_uart.o(i._ttywrch) refers to bsp_uart.o(i.sendchar) for sendchar
    bsp_uart.o(i.fgetc) refers to bsp_uart.o(i.getkey) for getkey
    bsp_uart.o(i.fgetc) refers to bsp_uart.o(i.sendchar) for sendchar
    bsp_uart.o(i.fputc) refers to bsp_uart.o(i.sendchar) for sendchar
    bsp_uart.o(i.usci_uART_rx_it) refers to bsp_uart.o(.bss) for strUart
    hal_bb.o(i.BB_CpxFix2pf) refers to hal_bb.o(i.BB_waitISR) for BB_waitISR
    hal_bb.o(i.BB_CpxFlt2pf_long) refers to hal_bb.o(i.BB_waitISR) for BB_waitISR
    hal_bb.o(i.BB_CpxFlt2pf_short) refers to hal_bb.o(i.BB_waitISR) for BB_waitISR
    hal_bb.o(i.BB_waitISR) refers to printf8.o(i.__0printf$8) for __2printf
    hal_bb.o(i.BB_waitISR) refers to hal_wdt.o(i.WDT_RstNow) for WDT_RstNow
    hal_bb.o(i.BB_waitISR) refers to irq_handler.o(.data) for BB_timeoutCnt
    hal_bb.o(i.BB_waitISR) refers to bb_config.o(.data) for BB_isrSet
    hal_bb.o(i.BB_waitISR_IRQ) refers to tasks.o(i.ulTaskNotifyTake) for ulTaskNotifyTake
    hal_bb.o(i.BB_waitISR_IRQ) refers to printf8.o(i.__0printf$8) for __2printf
    hal_bb.o(i.BB_waitISR_IRQ) refers to hal_wdt.o(i.WDT_RstNow) for WDT_RstNow
    hal_bb.o(i.BB_waitISR_IRQ) refers to bb_config.o(.data) for BB_isrSet
    hal_rf.o(i.Hal_RF_WaveCalc) refers to hal_rf.o(i.RF_Sweep_step_Calculate) for RF_Sweep_step_Calculate
    hal_rf.o(i.Hal_RF_WaveCalc) refers to memcpya.o(.text) for __aeabi_memcpy
    hal_rf.o(i.Hal_RF_WaveConfig) refers to memcpya.o(.text) for __aeabi_memcpy
    hal_rf.o(i.Hal_RF_WaveGen) refers to hal_rf.o(i.RF_Sweep_step_Calculate) for RF_Sweep_step_Calculate
    hal_rf.o(i.Hal_RF_WaveGen) refers to memcpya.o(.text) for __aeabi_memcpy
    hal_rf.o(i.RF_Clock40M_En) refers to bsp_gpio.o(i.BSP_ChipEn) for BSP_ChipEn
    hal_rf.o(i.RF_Clock40M_En) refers to hal_rf.o(i.RF_WriteRegSPI) for RF_WriteRegSPI
    hal_rf.o(i.RF_Freq_Start_Calc) refers to memseta.o(.text) for __aeabi_memclr4
    hal_rf.o(i.RF_Freq_Start_Calc) refers to hal_rf.o(i.mod) for mod
    hal_rf.o(i.RF_ReadRegSPI) refers to bsp_spi.o(i.RF_SPI_CS) for RF_SPI_CS
    hal_rf.o(i.RF_ReadRegSPI) refers to usci.o(i.USCI_SPI_TRx_Ext) for USCI_SPI_TRx_Ext
    hal_rf.o(i.RF_ReadRegSPI) refers to hal_rf.o(.bss) for SPI_write_data
    hal_rf.o(i.RF_ReadRegSPI) refers to bsp_spi.o(.bss) for SPI0
    hal_rf.o(i.RF_ReadWaveSPI_AM) refers to bsp_spi.o(i.RF_SPI_CS) for RF_SPI_CS
    hal_rf.o(i.RF_ReadWaveSPI_AM) refers to usci.o(i.USCI_SPI_TRx_Ext) for USCI_SPI_TRx_Ext
    hal_rf.o(i.RF_ReadWaveSPI_AM) refers to printf8.o(i.__0printf$8) for __2printf
    hal_rf.o(i.RF_ReadWaveSPI_AM) refers to hal_rf.o(.bss) for SPI_write_data
    hal_rf.o(i.RF_ReadWaveSPI_AM) refers to bsp_spi.o(.bss) for SPI0
    hal_rf.o(i.RF_ReadWaveSPI_C) refers to bsp_spi.o(i.RF_SPI_CS) for RF_SPI_CS
    hal_rf.o(i.RF_ReadWaveSPI_C) refers to usci.o(i.USCI_SPI_TRx_Ext) for USCI_SPI_TRx_Ext
    hal_rf.o(i.RF_ReadWaveSPI_C) refers to hal_rf.o(.bss) for SPI_write_data
    hal_rf.o(i.RF_ReadWaveSPI_C) refers to bsp_spi.o(.bss) for SPI0
    hal_rf.o(i.RF_Sweep_step_Calculate) refers to memseta.o(.text) for __aeabi_memclr4
    hal_rf.o(i.RF_Sweep_step_Calculate) refers to hal_rf.o(i.mod) for mod
    hal_rf.o(i.RF_WaveSet) refers to hal_rf.o(i.RF_WriteWaveSPI_C) for RF_WriteWaveSPI_C
    hal_rf.o(i.RF_WriteCmdSPI) refers to usci.o(i.USCI_SPI_Transmit_Ext) for USCI_SPI_Transmit_Ext
    hal_rf.o(i.RF_WriteCmdSPI) refers to bsp_spi.o(.bss) for SPI0
    hal_rf.o(i.RF_WritePaSPI_AM) refers to bsp_spi.o(i.RF_SPI_CS) for RF_SPI_CS
    hal_rf.o(i.RF_WritePaSPI_AM) refers to usci.o(i.USCI_SPI_Transmit_Ext) for USCI_SPI_Transmit_Ext
    hal_rf.o(i.RF_WritePaSPI_AM) refers to hal_rf.o(.bss) for SPI_write_data
    hal_rf.o(i.RF_WritePaSPI_AM) refers to bsp_spi.o(.bss) for SPI0
    hal_rf.o(i.RF_WriteRegSPI) refers to hal_rf.o(i.RF_ReadRegSPI) for RF_ReadRegSPI
    hal_rf.o(i.RF_WriteRegSPI) refers to bsp_spi.o(i.RF_SPI_CS) for RF_SPI_CS
    hal_rf.o(i.RF_WriteRegSPI) refers to usci.o(i.USCI_SPI_Transmit_Ext) for USCI_SPI_Transmit_Ext
    hal_rf.o(i.RF_WriteRegSPI) refers to printf8.o(i.__0printf$8) for __2printf
    hal_rf.o(i.RF_WriteRegSPI) refers to hal_rf.o(.bss) for SPI_write_data
    hal_rf.o(i.RF_WriteRegSPI) refers to bsp_spi.o(.bss) for SPI0
    hal_rf.o(i.RF_WriteRegSPI_Fast) refers to bsp_spi.o(i.RF_SPI_CS) for RF_SPI_CS
    hal_rf.o(i.RF_WriteRegSPI_Fast) refers to usci.o(i.USCI_SPI_Transmit_Ext) for USCI_SPI_Transmit_Ext
    hal_rf.o(i.RF_WriteRegSPI_Fast) refers to hal_rf.o(.bss) for SPI_write_data
    hal_rf.o(i.RF_WriteRegSPI_Fast) refers to bsp_spi.o(.bss) for SPI0
    hal_rf.o(i.RF_WriteWaveSPI_AM) refers to bsp_spi.o(i.RF_SPI_CS) for RF_SPI_CS
    hal_rf.o(i.RF_WriteWaveSPI_AM) refers to usci.o(i.USCI_SPI_Transmit_Ext) for USCI_SPI_Transmit_Ext
    hal_rf.o(i.RF_WriteWaveSPI_AM) refers to hal_rf.o(.bss) for SPI_write_data
    hal_rf.o(i.RF_WriteWaveSPI_AM) refers to bsp_spi.o(.bss) for SPI0
    hal_rf.o(i.RF_WriteWaveSPI_C) refers to bsp_spi.o(i.RF_SPI_CS) for RF_SPI_CS
    hal_rf.o(i.RF_WriteWaveSPI_C) refers to usci.o(i.USCI_SPI_Transmit_Ext) for USCI_SPI_Transmit_Ext
    hal_rf.o(i.RF_WriteWaveSPI_C) refers to hal_rf.o(i.RF_ReadWaveSPI_C) for RF_ReadWaveSPI_C
    hal_rf.o(i.RF_WriteWaveSPI_C) refers to printf8.o(i.__0printf$8) for __2printf
    hal_rf.o(i.RF_WriteWaveSPI_C) refers to hal_rf.o(.bss) for SPI_write_data
    hal_rf.o(i.RF_WriteWaveSPI_C) refers to bsp_spi.o(.bss) for SPI0
    hal_rf.o(i.RF_waveStart) refers to hal_rf.o(i.RF_WriteCmdSPI) for RF_WriteCmdSPI
    hal_rf.o(i.RF_waveStop) refers to hal_rf.o(i.RF_WriteCmdSPI) for RF_WriteCmdSPI
    hal_delay.o(i.Cnt_Delay_ms) refers to hal_delay.o(i.Cnt_Delay_us) for Cnt_Delay_us
    hal_delay.o(i.Cnt_Delay_ms) refers to system_sky32b750.o(.data) for hclk
    hal_dma.o(i.DMA_Config_Init) refers to dma.o(i.DMA_Disable) for DMA_Disable
    hal_dma.o(i.DMA_Config_Init) refers to dma.o(i.DMA_Clear_All_Irq) for DMA_Clear_All_Irq
    hal_dma.o(i.DMA_Config_Init) refers to dma.o(i.DMA_Init) for DMA_Init
    hal_dma.o(i.DMA_Start_TransferM2M_32) refers to dma.o(i.DMA_Disable) for DMA_Disable
    hal_dma.o(i.DMA_Start_TransferM2M_32) refers to dma.o(i.DMA_Channel_Configure) for DMA_Channel_Configure
    hal_dma.o(i.DMA_Start_TransferM2M_32) refers to dma.o(i.DMA_Clear_Irq) for DMA_Clear_Irq
    hal_dma.o(i.DMA_Start_TransferM2M_32) refers to dma.o(i.DMA_Enable) for DMA_Enable
    hal_dma.o(i.DMA_Start_TransferM2M_32) refers to dma.o(i.DMA_Channel_Enable) for DMA_Channel_Enable
    hal_dma.o(i.DMA_Start_TransferM2M_32) refers to dma.o(i.DMA_Num2Ch) for DMA_Num2Ch
    hal_dma.o(i.DMA_Start_TransferM2M_32) refers to hal_dma.o(.bss) for dmaConfigStr
    hal_dma.o(i.DMA_Start_TransferM2M_Flash2K_Step2) refers to dma.o(i.DMA_Disable) for DMA_Disable
    hal_dma.o(i.DMA_Start_TransferM2M_Flash2K_Step2) refers to dma.o(i.DMA_Enable) for DMA_Enable
    hal_dma.o(i.DMA_Start_TransferM2M_Flash2K_Step2) refers to dma.o(i.DMA_Clear_Irq) for DMA_Clear_Irq
    hal_dma.o(i.DMA_Start_TransferM2M_Flash2K_Step2) refers to dma.o(i.DMA_Channel_Enable) for DMA_Channel_Enable
    hal_dma.o(i.DMA_Start_TransferM2M_Flash2K_Step2) refers to hal_dma.o(.data) for g_dma_ch0
    hal_dma.o(i.DMA_Start_TransferM2M_SRAM2K) refers to dma.o(i.DMA_Channel_Configure) for DMA_Channel_Configure
    hal_dma.o(i.DMA_Start_TransferM2M_SRAM2K) refers to dma.o(i.DMA_Clear_Irq) for DMA_Clear_Irq
    hal_dma.o(i.DMA_Start_TransferM2M_SRAM2K) refers to dma.o(i.DMA_Disable) for DMA_Disable
    hal_dma.o(i.DMA_Start_TransferM2M_SRAM2K) refers to dma.o(i.DMA_Enable) for DMA_Enable
    hal_dma.o(i.DMA_Start_TransferM2M_SRAM2K) refers to dma.o(i.DMA_Channel_Enable) for DMA_Channel_Enable
    hal_dma.o(i.DMA_Start_TransferM2M_SRAM2K) refers to printf8.o(i.__0printf$8) for __2printf
    hal_dma.o(i.DMA_Start_TransferM2M_SRAM2K) refers to hal_wdt.o(i.WDT_RstNow) for WDT_RstNow
    hal_dma.o(i.DMA_Start_TransferM2M_SRAM2K) refers to hal_dma.o(.bss) for dmaConfigStr
    hal_dma.o(i.DMA_Start_TransferM2M_SRAM2K) refers to hal_dma.o(.data) for g_dma_ch0
    hal_dma.o(i.DMA_Start_TransferM2M_SRAM2K) refers to irq_handler.o(.data) for BB_timeoutCnt
    hal_dma.o(i.DMA_Start_TransferM2M_SRAM2K) refers to bb_config.o(.data) for BB_isrSet
    hal_dma.o(i.DMA_Start_TransferM2M_SRAM2K_Step2) refers to dma.o(i.DMA_Disable) for DMA_Disable
    hal_dma.o(i.DMA_Start_TransferM2M_SRAM2K_Step2) refers to dma.o(i.DMA_Enable) for DMA_Enable
    hal_dma.o(i.DMA_Start_TransferM2M_SRAM2K_Step2) refers to dma.o(i.DMA_Channel_Enable) for DMA_Channel_Enable
    hal_dma.o(i.DMA_Start_TransferM2M_SRAM2K_Step2) refers to dma.o(i.DMA_Clear_Irq) for DMA_Clear_Irq
    hal_dma.o(i.DMA_Start_TransferM2M_SRAM2K_Step2) refers to hal_dma.o(.data) for g_dma_ch0
    hal_dma.o(i.DMA_Start_TransferM2M_SRAM4K_Step2) refers to dma.o(i.DMA_Disable) for DMA_Disable
    hal_dma.o(i.DMA_Start_TransferM2M_SRAM4K_Step2) refers to dma.o(i.DMA_Enable) for DMA_Enable
    hal_dma.o(i.DMA_Start_TransferM2M_SRAM4K_Step2) refers to dma.o(i.DMA_Channel_Enable) for DMA_Channel_Enable
    hal_dma.o(i.DMA_Start_TransferM2M_SRAM4K_Step2) refers to dma.o(i.DMA_Clear_Irq) for DMA_Clear_Irq
    hal_dma.o(i.DMA_Start_TransferM2M_SRAM4K_Step2) refers to hal_dma.o(.data) for g_dma_ch0
    hal_dma.o(i.DMA_Start_TransferM2M_SRAM_Step1) refers to dma.o(i.DMA_Disable) for DMA_Disable
    hal_dma.o(i.DMA_Start_TransferM2M_SRAM_Step1) refers to dma.o(i.DMA_Channel_Configure) for DMA_Channel_Configure
    hal_dma.o(i.DMA_Start_TransferM2M_SRAM_Step1) refers to dma.o(i.DMA_Clear_Irq) for DMA_Clear_Irq
    hal_dma.o(i.DMA_Start_TransferM2M_SRAM_Step1) refers to hal_dma.o(.bss) for dmaConfigStr
    hal_rtc.o(i.After_Config) refers to hal_rtc.o(.data) for sysClkVal
    hal_rtc.o(i.DeepSleep_Config) refers to hal_rtc.o(i.Pre_Config) for Pre_Config
    hal_rtc.o(i.DeepSleep_Config) refers to system_sky32b750.o(i.Deep_Sleep) for Deep_Sleep
    hal_rtc.o(i.DeepSleep_Config) refers to hal_rtc.o(i.After_Config) for After_Config
    hal_rtc.o(i.HAL_RTC_Init) refers to rtc.o(i.RTC_Enable) for RTC_Enable
    hal_rtc.o(i.Pre_Config) refers to hal_rtc.o(.data) for pmod0
    hal_sysclk.o(i.HAL_SYS_CLK_Init) refers to hal_rf.o(i.RF_Clock40M_En) for RF_Clock40M_En
    hal_sysclk.o(i.HAL_SYS_CLK_Init) refers to hal_sysclk.o(i.SYS_CLK_PLL_Init) for SYS_CLK_PLL_Init
    hal_sysclk.o(i.SYS_CLK_HRC_Init) refers to system_sky32b750.o(i.Set_HRC) for Set_HRC
    hal_sysclk.o(i.SYS_CLK_HRC_Init) refers to system_sky32b750.o(i.Set_SysClk_Div) for Set_SysClk_Div
    hal_sysclk.o(i.SYS_CLK_HRC_Init) refers to system_sky32b750.o(i.HXTAL_Caliber_LRC) for HXTAL_Caliber_LRC
    hal_sysclk.o(i.SYS_CLK_HRC_Init) refers to system_sky32b750.o(i.LRC_Caliber_HRC) for LRC_Caliber_HRC
    hal_sysclk.o(i.SYS_CLK_HRC_Init) refers to system_sky32b750.o(i.HRC_System_Clock_Update) for HRC_System_Clock_Update
    hal_sysclk.o(i.SYS_CLK_HRC_Init) refers to usci.o(i.USCI_UART_Init) for USCI_UART_Init
    hal_sysclk.o(i.SYS_CLK_HRC_Init) refers to bsp_uart.o(.bss) for UART0
    hal_sysclk.o(i.SYS_CLK_PLL_Init) refers to system_sky32b750.o(i.Set_Flash_WS) for Set_Flash_WS
    hal_sysclk.o(i.SYS_CLK_PLL_Init) refers to system_sky32b750.o(i.Set_PLL) for Set_PLL
    hal_sysclk.o(i.SYS_CLK_PLL_Init) refers to system_sky32b750.o(i.Set_SysClk_Div) for Set_SysClk_Div
    hal_sysclk.o(i.SYS_CLK_PLL_Init) refers to system_sky32b750.o(i.PLL_System_Clock_Update) for PLL_System_Clock_Update
    hal_sysclk.o(i.SYS_CLK_PLL_Init) refers to usci.o(i.USCI_UART_Init) for USCI_UART_Init
    hal_sysclk.o(i.SYS_CLK_PLL_Init) refers to bsp_uart.o(.bss) for UART0
    hal_wdt.o(i.Close_Wdt) refers to wdt.o(i.WDT_Disable) for WDT_Disable
    hal_wdt.o(i.WDT_Init) refers to wdt.o(i.WDT_Enable) for WDT_Enable
    hal_wdt.o(i.WDT_RstNow) refers to wdt.o(i.WDT_Enable) for WDT_Enable
    hal_timer.o(i.SysTick_Init) refers to hal_timer.o(i.__NVIC_SetPriority) for __NVIC_SetPriority
    hal_timer.o(i.SysTick_Init) refers to hal_timer.o(i.__NVIC_EnableIRQ) for __NVIC_EnableIRQ
    hal_timer.o(i.SysTick_Init) refers to system_sky32b750.o(.data) for hclk
    hal_timer.o(i.TMRB0_Init) refers to timerb.o(i.TMRB_mTimeout) for TMRB_mTimeout
    hal_timer.o(i.TMRB0_Init) refers to hal_timer.o(i.__NVIC_SetPriority) for __NVIC_SetPriority
    hal_timer.o(i.TMRB0_Init) refers to hal_timer.o(i.__NVIC_EnableIRQ) for __NVIC_EnableIRQ
    hal_timer.o(i.TMRB0_Init) refers to paramconfig.o(.bss) for stFlashParam
    hal_ospi.o(i.DMA_IRQHandler) refers to dma.o(i.DMA_Clear_Irq) for DMA_Clear_Irq
    hal_ospi.o(i.DMA_IRQHandler) refers to dma.o(.bss) for dma_irq_sta
    hal_ospi.o(i.DMA_IRQHandler) refers to hal_ospi.o(.bss) for dma_callback
    hal_ospi.o(i.OSPI_DMA_Trans64_IRQ) refers to ospi.o(i.OSPI_Irq_IsActive) for OSPI_Irq_IsActive
    hal_ospi.o(i.OSPI_DMA_Trans64_IRQ) refers to ospi.o(i.OSPI_Clear_Irq) for OSPI_Clear_Irq
    hal_ospi.o(i.OSPI_DMA_Trans64_IRQ) refers to dma.o(i.DMA_Disable) for DMA_Disable
    hal_ospi.o(i.OSPI_DMA_Trans64_IRQ) refers to dma.o(i.DMA_Clear_Irq) for DMA_Clear_Irq
    hal_ospi.o(i.OSPI_DMA_Trans64_IRQ) refers to dma.o(i.DMA_Enable) for DMA_Enable
    hal_ospi.o(i.OSPI_DMA_Trans64_IRQ) refers to dma.o(i.DMA_Channel_Enable) for DMA_Channel_Enable
    hal_ospi.o(i.OSPI_DMA_Trans64_IRQ) refers to hal_ospi.o(.data) for irq_dma_flag2
    hal_ospi.o(i.OSPI_DMA_Trans64_IRQ_16kB) refers to ospi.o(i.OSPI_Irq_IsActive) for OSPI_Irq_IsActive
    hal_ospi.o(i.OSPI_DMA_Trans64_IRQ_16kB) refers to ospi.o(i.OSPI_Clear_Irq) for OSPI_Clear_Irq
    hal_ospi.o(i.OSPI_DMA_Trans64_IRQ_16kB) refers to hal_delay.o(i.Cnt_Delay_us) for Cnt_Delay_us
    hal_ospi.o(i.OSPI_DMA_Trans64_IRQ_16kB) refers to dma.o(i.DMA_Disable) for DMA_Disable
    hal_ospi.o(i.OSPI_DMA_Trans64_IRQ_16kB) refers to dma.o(i.DMA_Clear_Irq) for DMA_Clear_Irq
    hal_ospi.o(i.OSPI_DMA_Trans64_IRQ_16kB) refers to dma.o(i.DMA_Enable) for DMA_Enable
    hal_ospi.o(i.OSPI_DMA_Trans64_IRQ_16kB) refers to dma.o(i.DMA_Channel_Enable) for DMA_Channel_Enable
    hal_ospi.o(i.OSPI_DMA_Trans64_IRQ_8kB) refers to ospi.o(i.OSPI_Irq_IsActive) for OSPI_Irq_IsActive
    hal_ospi.o(i.OSPI_DMA_Trans64_IRQ_8kB) refers to ospi.o(i.OSPI_Clear_Irq) for OSPI_Clear_Irq
    hal_ospi.o(i.OSPI_DMA_Trans64_IRQ_8kB) refers to dma.o(i.DMA_Disable) for DMA_Disable
    hal_ospi.o(i.OSPI_DMA_Trans64_IRQ_8kB) refers to dma.o(i.DMA_Clear_Irq) for DMA_Clear_Irq
    hal_ospi.o(i.OSPI_DMA_Trans64_IRQ_8kB) refers to dma.o(i.DMA_Enable) for DMA_Enable
    hal_ospi.o(i.OSPI_DMA_Trans64_IRQ_8kB) refers to dma.o(i.DMA_Channel_Enable) for DMA_Channel_Enable
    hal_ospi.o(i.OSPI_DMA_Trans64_IRQ_8kB) refers to hal_ospi.o(.data) for irq_dma_flag2
    hal_ospi.o(i.OSPI_MasterInit) refers to ospi.o(i.OSPI_Init) for OSPI_Init
    hal_ospi.o(i.OSPI_MasterInit) refers to pinmux.o(i.PinMux_Set) for PinMux_Set
    hal_ospi.o(i.OSPI_MasterInit) refers to ospi.o(i.OSPI_Clear_Irq) for OSPI_Clear_Irq
    hal_ospi.o(i.OSPI_MasterInit) refers to dma.o(i.DMA_Init) for DMA_Init
    hal_ospi.o(i.OSPI_MasterInit) refers to dma.o(i.DMA_Disable) for DMA_Disable
    hal_ospi.o(i.OSPI_MasterInit) refers to dma.o(i.DMA_Channel_Configure) for DMA_Channel_Configure
    hal_ospi.o(i.OSPI_MasterInit) refers to dma.o(i.DMA_Clear_Irq) for DMA_Clear_Irq
    hal_ospi.o(i.OSPI_MasterInit) refers to dma.o(i.DMA_Mask_Irq) for DMA_Mask_Irq
    hal_ospi.o(i.OSPI_MasterInit) refers to dma.o(i.DMA_Enable) for DMA_Enable
    hal_ospi.o(i.OSPI_MasterInit) refers to hal_ospi.o(i.test_dma_ch1_callback) for test_dma_ch1_callback
    hal_ospi.o(i.OSPI_MasterInit) refers to hal_ospi.o(.bss) for dma_callback
    hal_ospi.o(i.OSPI_MasterInit) refers to hal_ospi.o(i.test_dma_ch2_callback) for test_dma_ch2_callback
    hal_ospi.o(i.test_dma_ch1_callback) refers to dma.o(i.DMA_Clear_Irq) for DMA_Clear_Irq
    hal_ospi.o(i.test_dma_ch1_callback) refers to hal_ospi.o(.data) for irq_dma_flag1
    hal_ospi.o(i.test_dma_ch1_callback) refers to dma.o(.bss) for dma_irq_sta
    hal_ospi.o(i.test_dma_ch2_callback) refers to dma.o(i.DMA_Clear_Irq) for DMA_Clear_Irq
    hal_ospi.o(i.test_dma_ch2_callback) refers to hal_delay.o(i.Cnt_Delay_us) for Cnt_Delay_us
    hal_ospi.o(i.test_dma_ch2_callback) refers to hal_ospi.o(.data) for irq_dma_flag2
    hal_ospi.o(i.test_dma_ch2_callback) refers to dma.o(.bss) for dma_irq_sta
    rf_config.o(i.RF_CfgInit) refers to memseta.o(.text) for __aeabi_memclr
    rf_config.o(i.RF_CfgInit) refers to hal_rf.o(i.RF_Freq_Start_Calc) for RF_Freq_Start_Calc
    rf_config.o(i.RF_CfgInit) refers to hal_rf.o(i.Hal_RF_WaveGen) for Hal_RF_WaveGen
    rf_config.o(i.RF_CfgInit) refers to memcpya.o(.text) for __aeabi_memcpy
    rf_config.o(i.RF_CfgInit) refers to hal_rf.o(i.Hal_RF_WaveConfig) for Hal_RF_WaveConfig
    rf_config.o(i.RF_CfgInit) refers to rf_config.o(.bss) for rf_reg
    rf_config.o(i.RF_CfgInit) refers to radar_config.o(.data) for radarUserCfg
    rf_config.o(i.RF_Dataprep_Switch) refers to radar_config.o(.bss) for algCfg
    rf_config.o(i.RF_Reg_Reset) refers to hal_rf.o(i.RF_waveStop) for RF_waveStop
    rf_config.o(i.RF_Reg_Reset) refers to hal_rf.o(i.RF_WriteRegSPI) for RF_WriteRegSPI
    rf_config.o(i.RF_Reg_Set) refers to hal_rf.o(i.RF_WriteRegSPI) for RF_WriteRegSPI
    rf_config.o(i.RF_Reg_Set) refers to memcpya.o(.text) for __aeabi_memcpy
    rf_config.o(i.RF_Reg_Set) refers to hal_rf.o(i.RF_WaveSet) for RF_WaveSet
    rf_config.o(i.RF_Reg_Set) refers to rf_config.o(.bss) for rf_reg
    rf_config.o(i.RF_Reg_Set) refers to radar_config.o(.data) for radarUserCfg
    bb_config.o(i.BB_CFAR_Vel_Init) refers to hal_bb.o(i.BB_CFAR_CFG0) for BB_CFAR_CFG0
    bb_config.o(i.BB_CFAR_Vel_Init) refers to bb_config.o(.bss) for cfarCfg0_stV
    bb_config.o(i.BB_CFAR_Vel_Init) refers to radar_config.o(.bss) for algCfg
    bb_config.o(i.BB_CFAR_Vel_Init) refers to paramconfig.o(.bss) for stFlashParam
    bb_config.o(i.BB_FFT2D_ZP_Init) refers to llshl.o(.text) for __aeabi_llsl
    bb_config.o(i.BB_FFT2D_ZP_Init) refers to radar_config.o(.bss) for algCfg
    bb_config.o(i.BB_FFT2D_ZP_Init) refers to bb_config.o(.bss) for fft2d_zp
    bb_config.o(i.BB_IRQHandler) refers to hal_rf.o(i.RF_waveStop) for RF_waveStop
    bb_config.o(i.BB_IRQHandler) refers to bb_task.o(i.BB_Task_Trigger) for BB_Task_Trigger
    bb_config.o(i.BB_IRQHandler) refers to bb_config.o(.data) for bb_regb_str
    bb_config.o(i.dataprep_RegSet) refers to hal_bb.o(i.BB_sampPT2reg) for BB_sampPT2reg
    bb_config.o(i.dataprep_RegSet) refers to hal_bb.o(i.BB_prepmode2reg) for BB_prepmode2reg
    bb_config.o(i.dataprep_RegSet) refers to hal_bb.o(i.BB_prepBit2reg) for BB_prepBit2reg
    bb_config.o(i.dataprep_RegSet) refers to hal_bb.o(i.BB_PrepConfig) for BB_PrepConfig
    bb_config.o(i.dataprep_RegSet) refers to bb_config.o(.bss) for bb_prep
    bb_config.o(i.dataprep_RegSet) refers to radar_config.o(.bss) for algCfg
    radar_config.o(i.Radar_Config_Init) refers to rf_config.o(i.RF_CfgInit) for RF_CfgInit
    radar_config.o(i.Radar_Config_Init) refers to radar_config.o(i.algStruct_Init) for algStruct_Init
    radar_config.o(i.Radar_Config_Init) refers to bb_config.o(i.dataprep_RegSet) for dataprep_RegSet
    radar_config.o(i.Radar_Config_Init) refers to bb_config.o(i.BB_FFT2D_ZP_Init) for BB_FFT2D_ZP_Init
    radar_config.o(i.Radar_Config_Init) refers to bb_config.o(i.BB_CFAR_Vel_Init) for BB_CFAR_Vel_Init
    radar_config.o(i.Radar_Config_Init) refers to hal_bb.o(i.BB_WBUF_W16) for BB_WBUF_W16
    radar_config.o(i.Radar_Config_Init) refers to hal_bb.o(i.BB_WBUF_W32) for BB_WBUF_W32
    radar_config.o(i.Radar_Config_Init) refers to hal_bb.o(i.BB_waitISR) for BB_waitISR
    radar_config.o(i.Radar_Config_Init) refers to paramconfig.o(.bss) for stFlashParam
    radar_config.o(i.Radar_Config_Init) refers to radar_config.o(.bss) for algCfg
    radar_config.o(i.Radar_Config_Init) refers to radar_config.o(.constdata) for winRange_Pre
    radar_config.o(i.algStruct_Init) refers to hal_bb.o(i.BB_sampPT2reg) for BB_sampPT2reg
    radar_config.o(i.algStruct_Init) refers to hal_bb.o(i.fftPTcalc) for fftPTcalc
    radar_config.o(i.algStruct_Init) refers to hal_bb.o(i.fft1dMeanDivCalc) for fft1dMeanDivCalc
    radar_config.o(i.algStruct_Init) refers to hal_bb.o(i.log2Data) for log2Data
    radar_config.o(i.algStruct_Init) refers to radar_config.o(.bss) for algCfg
    radar_config.o(i.algStruct_Init) refers to paramconfig.o(.bss) for stFlashParam
    radar_config.o(i.algStruct_Init) refers to radar_config.o(.data) for radarUserCfg
    bb_algproc.o(i.AngleCalcD) refers to bb_algproc.o(i.fft3dProc) for fft3dProc
    bb_algproc.o(i.AngleCalcD) refers to bb_algproc.o(i.fft4dProc) for fft4dProc
    bb_algproc.o(i.AngleCalcD) refers to radar_config.o(.bss) for algCfg
    bb_algproc.o(i.Func01_Handle) refers to bb_algproc.o(i.sampDataHandle) for sampDataHandle
    bb_algproc.o(i.Func01_Handle) refers to port.o(i.vPortEnterCritical) for vPortEnterCritical
    bb_algproc.o(i.Func01_Handle) refers to hal_ospi.o(i.OSPI_DMA_Trans64_IRQ_16kB) for OSPI_DMA_Trans64_IRQ_16kB
    bb_algproc.o(i.Func01_Handle) refers to port.o(i.vPortExitCritical) for vPortExitCritical
    bb_algproc.o(i.Func01_Handle) refers to radar_config.o(.bss) for algCfg
    bb_algproc.o(i.Func02_Handle) refers to bb_algproc.o(i.sampDataHandle) for sampDataHandle
    bb_algproc.o(i.Func02_Handle) refers to bb_algproc.o(i.fft1dMeanCalc) for fft1dMeanCalc
    bb_algproc.o(i.Func02_Handle) refers to bb_algproc.o(i.fft2dCalc) for fft2dCalc
    bb_algproc.o(i.Func02_Handle) refers to bb_algproc.o(i.fft2dAbsSum) for fft2dAbsSum
    bb_algproc.o(i.Func02_Handle) refers to bb_algproc.o(i.cfarCalc) for cfarCalc
    bb_algproc.o(i.Func02_Handle) refers to bb_algproc.o(i.AngleCalcD) for AngleCalcD
    bb_algproc.o(i.Func02_Handle) refers to bb_algproc.o(i.fft1dMeanMinus) for fft1dMeanMinus
    bb_algproc.o(i.Func02_Handle) refers to bb_algproc.o(i.cfarCalcS) for cfarCalcS
    bb_algproc.o(i.Func02_Handle) refers to bb_algproc.o(i.angleCalcS) for angleCalcS
    bb_algproc.o(i.Func02_Handle) refers to queue.o(i.xQueueGenericSend) for xQueueGenericSend
    bb_algproc.o(i.Func02_Handle) refers to tasks.o(i.vTaskDelay) for vTaskDelay
    bb_algproc.o(i.Func02_Handle) refers to tasks.o(i.ulTaskNotifyTake) for ulTaskNotifyTake
    bb_algproc.o(i.Func02_Handle) refers to printf8.o(i.__0printf$8) for __2printf
    bb_algproc.o(i.Func02_Handle) refers to bb_algproc.o(.data) for BB_AlgProcFinished
    bb_algproc.o(i.Func02_Handle) refers to radar_config.o(.bss) for algCfg
    bb_algproc.o(i.Func02_Handle) refers to bb_task.o(.data) for xSemaphoreBB
    bb_algproc.o(i.angleCalcS) refers to bb_algproc.o(i.fft3dProc) for fft3dProc
    bb_algproc.o(i.angleCalcS) refers to bb_algproc.o(i.fft4dProc) for fft4dProc
    bb_algproc.o(i.angleCalcS) refers to radar_config.o(.bss) for algCfg
    bb_algproc.o(i.cfarCalc) refers to bb_config.o(i.BB_CFAR_Vel_Init) for BB_CFAR_Vel_Init
    bb_algproc.o(i.cfarCalc) refers to hal_bb.o(i.BB_waitISR) for BB_waitISR
    bb_algproc.o(i.cfarCalc) refers to bb_algproc.o(i.saveTargetAllAnt) for saveTargetAllAnt
    bb_algproc.o(i.cfarCalc) refers to radar_config.o(.bss) for algCfg
    bb_algproc.o(i.cfarCalc) refers to bb_config.o(.data) for bb_regb_str
    bb_algproc.o(i.cfarCalc2Col) refers to hal_bb.o(i.BB_CFAR_CFG0) for BB_CFAR_CFG0
    bb_algproc.o(i.cfarCalc2Col) refers to hal_bb.o(i.BB_waitISR) for BB_waitISR
    bb_algproc.o(i.cfarCalc2Col) refers to radar_config.o(.bss) for algCfg
    bb_algproc.o(i.cfarCalc2Col) refers to paramconfig.o(.bss) for stFlashParam
    bb_algproc.o(i.cfarCalc2Col) refers to bb_config.o(.data) for bb_regb_str
    bb_algproc.o(i.cfarCalcS) refers to hal_bb.o(i.BB_waitISR) for BB_waitISR
    bb_algproc.o(i.cfarCalcS) refers to hal_bb.o(i.BB_CFAR_CFG0) for BB_CFAR_CFG0
    bb_algproc.o(i.cfarCalcS) refers to radar_config.o(.bss) for algCfg
    bb_algproc.o(i.cfarCalcS) refers to paramconfig.o(.bss) for stFlashParam
    bb_algproc.o(i.cfarCalcS) refers to bb_config.o(.data) for bb_regb_str
    bb_algproc.o(i.cfarCalcS) refers to bb_algproc.o(i.cfarCalc2Col) for cfarCalc2Col
    bb_algproc.o(i.fft1dCalc) refers to hal_bb.o(i.BB_FFT_ZP_Clear) for BB_FFT_ZP_Clear
    bb_algproc.o(i.fft1dCalc) refers to tasks.o(i.ulTaskNotifyTake) for ulTaskNotifyTake
    bb_algproc.o(i.fft1dCalc) refers to printf8.o(i.__0printf$8) for __2printf
    bb_algproc.o(i.fft1dCalc) refers to hal_bb.o(i.BB_waitISR) for BB_waitISR
    bb_algproc.o(i.fft1dCalc) refers to rf_config.o(i.RF_Reg_Reset) for RF_Reg_Reset
    bb_algproc.o(i.fft1dCalc) refers to radar_config.o(.bss) for algCfg
    bb_algproc.o(i.fft1dCalc) refers to bb_config.o(.data) for BB_isrSet
    bb_algproc.o(i.fft1dCalc) refers to radar_config.o(.constdata) for nco_fcw
    bb_algproc.o(i.fft1dCalc) refers to paramconfig.o(.bss) for stFlashParam
    bb_algproc.o(i.fft1dMeanCalc) refers to hal_bb.o(i.BB_waitISR) for BB_waitISR
    bb_algproc.o(i.fft1dMeanCalc) refers to bb_algproc.o(i.fft1dWinVelMeanCalc) for fft1dWinVelMeanCalc
    bb_algproc.o(i.fft1dMeanCalc) refers to hal_dma.o(i.DMA_Start_TransferM2M_32) for DMA_Start_TransferM2M_32
    bb_algproc.o(i.fft1dMeanCalc) refers to radar_config.o(.bss) for algCfg
    bb_algproc.o(i.fft1dMeanCalc) refers to bb_algproc.o(.data) for frameCnt
    bb_algproc.o(i.fft1dMeanMinus) refers to hal_bb.o(i.BB_waitISR) for BB_waitISR
    bb_algproc.o(i.fft1dMeanMinus) refers to bb_algproc.o(i.meanMinus) for meanMinus
    bb_algproc.o(i.fft1dMeanMinus) refers to radar_config.o(.bss) for algCfg
    bb_algproc.o(i.fft1dMeanMinus) refers to bb_algproc.o(.data) for meanBufIdx
    bb_algproc.o(i.fft1dWinVelMeanCalc) refers to hal_bb.o(i.BB_waitISR) for BB_waitISR
    bb_algproc.o(i.fft1dWinVelMeanCalc) refers to radar_config.o(.bss) for algCfg
    bb_algproc.o(i.fft2dAbsSum) refers to hal_bb.o(i.BB_waitISR) for BB_waitISR
    bb_algproc.o(i.fft2dAbsSum) refers to radar_config.o(.bss) for algCfg
    bb_algproc.o(i.fft2dCalc) refers to hal_bb.o(i.BB_FFT_ZP_Clear) for BB_FFT_ZP_Clear
    bb_algproc.o(i.fft2dCalc) refers to hal_bb.o(i.BB_waitISR) for BB_waitISR
    bb_algproc.o(i.fft2dCalc) refers to radar_config.o(.bss) for algCfg
    bb_algproc.o(i.fft2dCalc) refers to bb_config.o(.bss) for fft2d_zp
    bb_algproc.o(i.fft2dCalc) refers to bb_config.o(.data) for bb_regb_str
    bb_algproc.o(i.fft3dProc) refers to hal_bb.o(i.BB_FFT_ZP_Clear) for BB_FFT_ZP_Clear
    bb_algproc.o(i.fft3dProc) refers to hal_bb.o(i.BB_waitISR) for BB_waitISR
    bb_algproc.o(i.fft3dProc) refers to radar_config.o(.bss) for algCfg
    bb_algproc.o(i.fft3dProc) refers to bb_config.o(.data) for bb_regb_str
    bb_algproc.o(i.fft4dProc) refers to hal_bb.o(i.BB_FFT_ZP_Clear) for BB_FFT_ZP_Clear
    bb_algproc.o(i.fft4dProc) refers to hal_bb.o(i.BB_waitISR) for BB_waitISR
    bb_algproc.o(i.fft4dProc) refers to radar_config.o(.bss) for algCfg
    bb_algproc.o(i.fft4dProc) refers to bb_config.o(.data) for bb_regb_str
    bb_algproc.o(i.getPointCloud) refers to usart_protocol.o(i.ProtocolSendPack) for ProtocolSendPack
    bb_algproc.o(i.getPointCloud) refers to bsp_uart.o(i.UART_Transmit_Bytes) for UART_Transmit_Bytes
    bb_algproc.o(i.getPointCloud) refers to main.o(.data) for bb_RunTime
    bb_algproc.o(i.getPointCloud) refers to radar_config.o(.bss) for algCfg
    bb_algproc.o(i.getPointCloud) refers to bsp_uart.o(.bss) for UART0
    bb_algproc.o(i.meanMinus) refers to hal_bb.o(i.BB_waitISR) for BB_waitISR
    bb_algproc.o(i.meanMinus) refers to radar_config.o(.bss) for algCfg
    bb_algproc.o(i.sampDataHandle) refers to port.o(i.vPortEnterCritical) for vPortEnterCritical
    bb_algproc.o(i.sampDataHandle) refers to rf_config.o(i.RF_Reg_Set) for RF_Reg_Set
    bb_algproc.o(i.sampDataHandle) refers to port.o(i.vPortExitCritical) for vPortExitCritical
    bb_algproc.o(i.sampDataHandle) refers to tasks.o(i.ulTaskNotifyTake) for ulTaskNotifyTake
    bb_algproc.o(i.sampDataHandle) refers to bb_algproc.o(i.fft1dCalc) for fft1dCalc
    bb_algproc.o(i.sampDataHandle) refers to printf8.o(i.__0printf$8) for __2printf
    bb_algproc.o(i.sampDataHandle) refers to rf_config.o(i.RF_Reg_Reset) for RF_Reg_Reset
    bb_algproc.o(i.sampDataHandle) refers to bb_config.o(.data) for rampCnt
    bb_algproc.o(i.sampDataHandle) refers to radar_config.o(.bss) for algCfg
    bb_algproc.o(i.sampDataHandle) refers to main.o(.data) for waveStartEn
    bb_algproc.o(i.sampDataHandle) refers to paramconfig.o(.bss) for stFlashParam
    bb_algproc.o(i.saveTargetAllAnt) refers to hal_bb.o(i.BB_waitISR) for BB_waitISR
    bb_algproc.o(i.saveTargetAllAnt) refers to radar_config.o(.bss) for algCfg
    bb_task.o(i.BB_AlgProc_Loop) refers to bb_algproc.o(i.Func01_Handle) for Func01_Handle
    bb_task.o(i.BB_AlgProc_Loop) refers to printf8.o(i.__0printf$8) for __2printf
    bb_task.o(i.BB_AlgProc_Loop) refers to hal_wdt.o(i.WDT_RstNow) for WDT_RstNow
    bb_task.o(i.BB_AlgProc_Loop) refers to paramconfig.o(.bss) for stFlashParam
    bb_task.o(i.BB_Task) refers to usart_protocol.o(i.RecProtocol_Loop) for RecProtocol_Loop
    bb_task.o(i.BB_Task) refers to bb_task.o(i.BB_AlgProc_Loop) for BB_AlgProc_Loop
    bb_task.o(i.BB_Task) refers to paramconfig.o(.bss) for stFlashParam
    bb_task.o(i.BB_Task_Trigger) refers to tasks.o(i.vTaskNotifyGiveFromISR) for vTaskNotifyGiveFromISR
    bb_task.o(i.BB_Task_Trigger) refers to bb_task.o(.data) for BBTask_Handler
    bb_task.o(i.CreateBBTask) refers to tasks.o(i.xTaskCreate) for xTaskCreate
    bb_task.o(i.CreateBBTask) refers to bb_task.o(.data) for BBTask_Handler
    bb_task.o(i.CreateBBTask) refers to bb_task.o(i.BB_Task) for BB_Task
    printf_task.o(i.CPUMonitor_IdleHandle) refers to printf_task.o(i.PrintTaskList) for PrintTaskList
    printf_task.o(i.CPUMonitor_IdleHandle) refers to printf_task.o(.data) for cnt
    printf_task.o(i.CreatePrintfTask) refers to tasks.o(i.xTaskCreate) for xTaskCreate
    printf_task.o(i.CreatePrintfTask) refers to printf_task.o(.data) for PrintfTask_Handler
    printf_task.o(i.CreatePrintfTask) refers to printf_task.o(i.Printf_Task) for Printf_Task
    printf_task.o(i.PrintTaskList) refers to tasks.o(i.vTaskList) for vTaskList
    printf_task.o(i.PrintTaskList) refers to printf8.o(i.__0printf$8) for __2printf
    printf_task.o(i.PrintTaskList) refers to tasks.o(i.vTaskGetRunTimeStats) for vTaskGetRunTimeStats
    printf_task.o(i.PrintTaskList) refers to printf_task.o(.bss) for pcWriteBuffer
    printf_task.o(i.Printf_Task) refers to queue.o(i.xQueueGenericReceive) for xQueueGenericReceive
    printf_task.o(i.Printf_Task) refers to bb_algproc.o(i.getPointCloud) for getPointCloud
    printf_task.o(i.Printf_Task) refers to radar_config.o(.bss) for algCfg
    printf_task.o(i.Printf_Task) refers to bb_task.o(.data) for xSemaphoreBB
    printf_task.o(i.Printf_Task_Trigger) refers to tasks.o(i.vTaskNotifyGiveFromISR) for vTaskNotifyGiveFromISR
    printf_task.o(i.Printf_Task_Trigger) refers to printf_task.o(.data) for PrintfTask_Handler
    main.o(i.App_Init) refers to paramconfig.o(i.ParamConfigInit) for ParamConfigInit
    main.o(i.App_Init) refers to radar_config.o(i.Radar_Config_Init) for Radar_Config_Init
    main.o(i.App_Init) refers to radar_config.o(.data) for radarUserCfg
    main.o(i.Sys_Init) refers to system_sky32b750.o(i.Set_CoreLDO_Voltage) for Set_CoreLDO_Voltage
    main.o(i.Sys_Init) refers to system_sky32b750.o(i.Set_Flash_WS) for Set_Flash_WS
    main.o(i.Sys_Init) refers to bsp_uart.o(i.BSP_UART_Init) for BSP_UART_Init
    main.o(i.Sys_Init) refers to bsp_gpio.o(i.BSP_GPIO_Init) for BSP_GPIO_Init
    main.o(i.Sys_Init) refers to bsp_spi.o(i.BSP_SPI_Init) for BSP_SPI_Init
    main.o(i.Sys_Init) refers to hal_sysclk.o(i.HAL_SYS_CLK_Init) for HAL_SYS_CLK_Init
    main.o(i.Sys_Init) refers to hal_dma.o(i.DMA_Config_Init) for DMA_Config_Init
    main.o(i.Sys_Init) refers to bsp_adc.o(i.BSP_ADC_Init) for BSP_ADC_Init
    main.o(i.Sys_Init) refers to wdt.o(i.WDT_Disable) for WDT_Disable
    main.o(i.Sys_Init) refers to hal_mpu.o(i.HAL_MPU_Init) for HAL_MPU_Init
    main.o(i.Sys_Init) refers to hal_ospi.o(i.OSPI_MasterInit) for OSPI_MasterInit
    main.o(i.Sys_Init) refers to hal_timer.o(i.SysTick_Init) for SysTick_Init
    main.o(i.Sys_Init) refers to hal_sysclk.o(.data) for stHRC
    main.o(i.main) refers to main.o(i.Sys_Init) for Sys_Init
    main.o(i.main) refers to main.o(i.App_Init) for App_Init
    main.o(i.main) refers to tasks.o(i.xTaskCreate) for xTaskCreate
    main.o(i.main) refers to tasks.o(i.vTaskStartScheduler) for vTaskStartScheduler
    main.o(i.main) refers to main.o(.data) for StartTask_Handler
    main.o(i.main) refers to main.o(i.start_task) for start_task
    main.o(i.start_task) refers to port.o(i.vPortEnterCritical) for vPortEnterCritical
    main.o(i.start_task) refers to queue.o(i.xQueueGenericCreate) for xQueueGenericCreate
    main.o(i.start_task) refers to bb_task.o(i.CreateBBTask) for CreateBBTask
    main.o(i.start_task) refers to printf_task.o(i.CreatePrintfTask) for CreatePrintfTask
    main.o(i.start_task) refers to hal_timer.o(i.TMRB0_Init) for TMRB0_Init
    main.o(i.start_task) refers to tasks.o(i.vTaskDelete) for vTaskDelete
    main.o(i.start_task) refers to port.o(i.vPortExitCritical) for vPortExitCritical
    main.o(i.start_task) refers to bb_task.o(.data) for xSemaphoreBB
    main.o(i.start_task) refers to main.o(.data) for StartTask_Handler
    main.o(i.userTimerB0CallBackHand) refers to hal_rf.o(i.RF_waveStart) for RF_waveStart
    main.o(i.userTimerB0CallBackHand) refers to hal_rf.o(i.RF_WriteRegSPI) for RF_WriteRegSPI
    main.o(i.userTimerB0CallBackHand) refers to bb_task.o(i.BB_Task_Trigger) for BB_Task_Trigger
    main.o(i.userTimerB0CallBackHand) refers to main.o(.data) for bbTimCnt
    main.o(i.userTimerB0CallBackHand) refers to bb_algproc.o(.data) for BB_AlgProcFinished
    usart_protocol.o(i.ImportData_Loop) refers to printf8.o(i.__0printf$8) for __2printf
    usart_protocol.o(i.ImportData_Loop) refers to bsp_uart.o(.bss) for strUart
    usart_protocol.o(i.ImportData_Loop) refers to radar_config.o(.bss) for algCfg
    usart_protocol.o(i.ImportData_Loop) refers to paramconfig.o(.bss) for stFlashParam
    usart_protocol.o(i.ProtocolSendPack) refers to main.o(.data) for bb_RunTime
    usart_protocol.o(i.ProtocolSendPack) refers to radar_config.o(.bss) for algCfg
    usart_protocol.o(i.Protocol_Analysis_Handle) refers to memseta.o(.text) for __aeabi_memclr4
    usart_protocol.o(i.Protocol_Analysis_Handle) refers to memcmp.o(.text) for memcmp
    usart_protocol.o(i.Protocol_Analysis_Handle) refers to printf8.o(i.__0printf$8) for __2printf
    usart_protocol.o(i.Protocol_Analysis_Handle) refers to hal_wdt.o(i.WDT_RstNow) for WDT_RstNow
    usart_protocol.o(i.Protocol_Analysis_Handle) refers to usart_protocol.o(i.AsciiToDec) for AsciiToDec
    usart_protocol.o(i.Protocol_Analysis_Handle) refers to usart_protocol.o(i.Word2Byte) for Word2Byte
    usart_protocol.o(i.Protocol_Analysis_Handle) refers to efc.o(i.EFC_ReWrite) for EFC_ReWrite
    usart_protocol.o(i.Protocol_Analysis_Handle) refers to bsp_uart.o(.bss) for strUart
    usart_protocol.o(i.Protocol_Analysis_Handle) refers to usart_protocol.o(.bss) for udata
    usart_protocol.o(i.Protocol_Analysis_Handle) refers to paramconfig.o(.bss) for stFlashParam
    usart_protocol.o(i.Protocol_Analysis_Handle) refers to main.o(.data) for bbTimCnt
    usart_protocol.o(i.Protocol_Analysis_Handle) refers to bsp_uart.o(i.UART_Transmit_Bytes) for UART_Transmit_Bytes
    usart_protocol.o(i.RecProtocol_Loop) refers to tasks.o(i.vTaskDelay) for vTaskDelay
    usart_protocol.o(i.RecProtocol_Loop) refers to usart_protocol.o(i.Protocol_Analysis_Handle) for Protocol_Analysis_Handle
    usart_protocol.o(i.RecProtocol_Loop) refers to bsp_uart.o(.bss) for strUart
    paramconfig.o(i.ParamConfigInit) refers to memseta.o(.text) for __aeabi_memclr4
    paramconfig.o(i.ParamConfigInit) refers to paramconfig.o(i.Read_Param_From_Flash) for Read_Param_From_Flash
    paramconfig.o(i.ParamConfigInit) refers to paramconfig.o(i.Default_Param_Config) for Default_Param_Config
    paramconfig.o(i.ParamConfigInit) refers to paramconfig.o(i.Printf_Param) for Printf_Param
    paramconfig.o(i.ParamConfigInit) refers to paramconfig.o(.bss) for stFlashParam
    paramconfig.o(i.Printf_Param) refers to printf8.o(i.__0printf$8) for __2printf
    paramconfig.o(i.Printf_Param) refers to paramconfig.o(.conststring) for .conststring
    paramconfig.o(i.Printf_Param) refers to paramconfig.o(.bss) for stFlashParam
    paramconfig.o(i.Read_Param_From_Flash) refers to paramconfig.o(.bss) for stFlashParam
    irq_handler.o(i.SysTick_Handler) refers to tasks.o(i.xTaskGetSchedulerState) for xTaskGetSchedulerState
    irq_handler.o(i.SysTick_Handler) refers to port.o(i.xPortSysTickHandler) for xPortSysTickHandler
    irq_handler.o(i.SysTick_Handler) refers to irq_handler.o(.data) for SysTick_Counter
    irq_handler.o(i.TMRB0_IRQHandler) refers to main.o(i.userTimerB0CallBackHand) for userTimerB0CallBackHand
    irq_handler.o(i.TMRB0_IRQHandler) refers to irq_handler.o(.data) for BB_timeoutCnt
    entry.o(.ARM.Collect$$$$00000000) refers (Special) to entry10a.o(.ARM.Collect$$$$0000000F) for __rt_final_cpp
    entry.o(.ARM.Collect$$$$00000000) refers (Special) to entry11a.o(.ARM.Collect$$$$00000011) for __rt_final_exit
    entry.o(.ARM.Collect$$$$00000000) refers (Special) to entry12b.o(.ARM.Collect$$$$0000000E) for __rt_lib_shutdown_fini
    entry.o(.ARM.Collect$$$$00000000) refers (Special) to entry7b.o(.ARM.Collect$$$$00000008) for _main_clock
    entry.o(.ARM.Collect$$$$00000000) refers (Special) to entry8b.o(.ARM.Collect$$$$0000000A) for _main_cpp_init
    entry.o(.ARM.Collect$$$$00000000) refers (Special) to entry9a.o(.ARM.Collect$$$$0000000B) for _main_init
    entry.o(.ARM.Collect$$$$00000000) refers (Special) to entry5.o(.ARM.Collect$$$$00000004) for _main_scatterload
    entry.o(.ARM.Collect$$$$00000000) refers (Special) to entry2.o(.ARM.Collect$$$$00000001) for _main_stk
    uldiv.o(.text) refers to llushr.o(.text) for __aeabi_llsr
    uldiv.o(.text) refers to llshl.o(.text) for __aeabi_llsl
    printfb.o(i.__0fprintf$bare) refers to printfb.o(i._printf_core) for _printf_core
    printfb.o(i.__0fprintf$bare) refers to bsp_uart.o(i.fputc) for fputc
    printfb.o(i.__0printf$bare) refers to printfb.o(i._printf_core) for _printf_core
    printfb.o(i.__0printf$bare) refers to bsp_uart.o(i.fputc) for fputc
    printfb.o(i.__0printf$bare) refers to bsp_uart.o(.data) for __stdout
    printfb.o(i.__0snprintf$bare) refers to printfb.o(i._printf_core) for _printf_core
    printfb.o(i.__0snprintf$bare) refers to printfb.o(i._snputc) for _snputc
    printfb.o(i.__0sprintf$bare) refers to printfb.o(i._printf_core) for _printf_core
    printfb.o(i.__0sprintf$bare) refers to printfb.o(i._sputc) for _sputc
    printfb.o(i.__0vfprintf$bare) refers to printfb.o(i._printf_core) for _printf_core
    printfb.o(i.__0vfprintf$bare) refers to bsp_uart.o(i.fputc) for fputc
    printfb.o(i.__0vprintf$bare) refers to printfb.o(i._printf_core) for _printf_core
    printfb.o(i.__0vprintf$bare) refers to bsp_uart.o(i.fputc) for fputc
    printfb.o(i.__0vprintf$bare) refers to bsp_uart.o(.data) for __stdout
    printfb.o(i.__0vsnprintf$bare) refers to printfb.o(i._printf_core) for _printf_core
    printfb.o(i.__0vsnprintf$bare) refers to printfb.o(i._snputc) for _snputc
    printfb.o(i.__0vsprintf$bare) refers to printfb.o(i._printf_core) for _printf_core
    printfb.o(i.__0vsprintf$bare) refers to printfb.o(i._sputc) for _sputc
    printf0.o(i.__0fprintf$0) refers to printf0.o(i._printf_core) for _printf_core
    printf0.o(i.__0fprintf$0) refers to bsp_uart.o(i.fputc) for fputc
    printf0.o(i.__0printf$0) refers to printf0.o(i._printf_core) for _printf_core
    printf0.o(i.__0printf$0) refers to bsp_uart.o(i.fputc) for fputc
    printf0.o(i.__0printf$0) refers to bsp_uart.o(.data) for __stdout
    printf0.o(i.__0snprintf$0) refers to printf0.o(i._printf_core) for _printf_core
    printf0.o(i.__0snprintf$0) refers to printf0.o(i._snputc) for _snputc
    printf0.o(i.__0sprintf$0) refers to printf0.o(i._printf_core) for _printf_core
    printf0.o(i.__0sprintf$0) refers to printf0.o(i._sputc) for _sputc
    printf0.o(i.__0vfprintf$0) refers to printf0.o(i._printf_core) for _printf_core
    printf0.o(i.__0vfprintf$0) refers to bsp_uart.o(i.fputc) for fputc
    printf0.o(i.__0vprintf$0) refers to printf0.o(i._printf_core) for _printf_core
    printf0.o(i.__0vprintf$0) refers to bsp_uart.o(i.fputc) for fputc
    printf0.o(i.__0vprintf$0) refers to bsp_uart.o(.data) for __stdout
    printf0.o(i.__0vsnprintf$0) refers to printf0.o(i._printf_core) for _printf_core
    printf0.o(i.__0vsnprintf$0) refers to printf0.o(i._snputc) for _snputc
    printf0.o(i.__0vsprintf$0) refers to printf0.o(i._printf_core) for _printf_core
    printf0.o(i.__0vsprintf$0) refers to printf0.o(i._sputc) for _sputc
    printf1.o(i.__0fprintf$1) refers to printf1.o(i._printf_core) for _printf_core
    printf1.o(i.__0fprintf$1) refers to bsp_uart.o(i.fputc) for fputc
    printf1.o(i.__0printf$1) refers to printf1.o(i._printf_core) for _printf_core
    printf1.o(i.__0printf$1) refers to bsp_uart.o(i.fputc) for fputc
    printf1.o(i.__0printf$1) refers to bsp_uart.o(.data) for __stdout
    printf1.o(i.__0snprintf$1) refers to printf1.o(i._printf_core) for _printf_core
    printf1.o(i.__0snprintf$1) refers to printf1.o(i._snputc) for _snputc
    printf1.o(i.__0sprintf$1) refers to printf1.o(i._printf_core) for _printf_core
    printf1.o(i.__0sprintf$1) refers to printf1.o(i._sputc) for _sputc
    printf1.o(i.__0vfprintf$1) refers to printf1.o(i._printf_core) for _printf_core
    printf1.o(i.__0vfprintf$1) refers to bsp_uart.o(i.fputc) for fputc
    printf1.o(i.__0vprintf$1) refers to printf1.o(i._printf_core) for _printf_core
    printf1.o(i.__0vprintf$1) refers to bsp_uart.o(i.fputc) for fputc
    printf1.o(i.__0vprintf$1) refers to bsp_uart.o(.data) for __stdout
    printf1.o(i.__0vsnprintf$1) refers to printf1.o(i._printf_core) for _printf_core
    printf1.o(i.__0vsnprintf$1) refers to printf1.o(i._snputc) for _snputc
    printf1.o(i.__0vsprintf$1) refers to printf1.o(i._printf_core) for _printf_core
    printf1.o(i.__0vsprintf$1) refers to printf1.o(i._sputc) for _sputc
    printf1.o(i._printf_core) refers to uidiv.o(.text) for __aeabi_uidivmod
    printf2.o(i.__0fprintf$2) refers to printf2.o(i._printf_core) for _printf_core
    printf2.o(i.__0fprintf$2) refers to bsp_uart.o(i.fputc) for fputc
    printf2.o(i.__0printf$2) refers to printf2.o(i._printf_core) for _printf_core
    printf2.o(i.__0printf$2) refers to bsp_uart.o(i.fputc) for fputc
    printf2.o(i.__0printf$2) refers to bsp_uart.o(.data) for __stdout
    printf2.o(i.__0snprintf$2) refers to printf2.o(i._printf_core) for _printf_core
    printf2.o(i.__0snprintf$2) refers to printf2.o(i._snputc) for _snputc
    printf2.o(i.__0sprintf$2) refers to printf2.o(i._printf_core) for _printf_core
    printf2.o(i.__0sprintf$2) refers to printf2.o(i._sputc) for _sputc
    printf2.o(i.__0vfprintf$2) refers to printf2.o(i._printf_core) for _printf_core
    printf2.o(i.__0vfprintf$2) refers to bsp_uart.o(i.fputc) for fputc
    printf2.o(i.__0vprintf$2) refers to printf2.o(i._printf_core) for _printf_core
    printf2.o(i.__0vprintf$2) refers to bsp_uart.o(i.fputc) for fputc
    printf2.o(i.__0vprintf$2) refers to bsp_uart.o(.data) for __stdout
    printf2.o(i.__0vsnprintf$2) refers to printf2.o(i._printf_core) for _printf_core
    printf2.o(i.__0vsnprintf$2) refers to printf2.o(i._snputc) for _snputc
    printf2.o(i.__0vsprintf$2) refers to printf2.o(i._printf_core) for _printf_core
    printf2.o(i.__0vsprintf$2) refers to printf2.o(i._sputc) for _sputc
    printf3.o(i.__0fprintf$3) refers to printf3.o(i._printf_core) for _printf_core
    printf3.o(i.__0fprintf$3) refers to bsp_uart.o(i.fputc) for fputc
    printf3.o(i.__0printf$3) refers to printf3.o(i._printf_core) for _printf_core
    printf3.o(i.__0printf$3) refers to bsp_uart.o(i.fputc) for fputc
    printf3.o(i.__0printf$3) refers to bsp_uart.o(.data) for __stdout
    printf3.o(i.__0snprintf$3) refers to printf3.o(i._printf_core) for _printf_core
    printf3.o(i.__0snprintf$3) refers to printf3.o(i._snputc) for _snputc
    printf3.o(i.__0sprintf$3) refers to printf3.o(i._printf_core) for _printf_core
    printf3.o(i.__0sprintf$3) refers to printf3.o(i._sputc) for _sputc
    printf3.o(i.__0vfprintf$3) refers to printf3.o(i._printf_core) for _printf_core
    printf3.o(i.__0vfprintf$3) refers to bsp_uart.o(i.fputc) for fputc
    printf3.o(i.__0vprintf$3) refers to printf3.o(i._printf_core) for _printf_core
    printf3.o(i.__0vprintf$3) refers to bsp_uart.o(i.fputc) for fputc
    printf3.o(i.__0vprintf$3) refers to bsp_uart.o(.data) for __stdout
    printf3.o(i.__0vsnprintf$3) refers to printf3.o(i._printf_core) for _printf_core
    printf3.o(i.__0vsnprintf$3) refers to printf3.o(i._snputc) for _snputc
    printf3.o(i.__0vsprintf$3) refers to printf3.o(i._printf_core) for _printf_core
    printf3.o(i.__0vsprintf$3) refers to printf3.o(i._sputc) for _sputc
    printf3.o(i._printf_core) refers to uidiv.o(.text) for __aeabi_uidivmod
    printf4.o(i.__0fprintf$4) refers to printf4.o(i._printf_core) for _printf_core
    printf4.o(i.__0fprintf$4) refers to bsp_uart.o(i.fputc) for fputc
    printf4.o(i.__0printf$4) refers to printf4.o(i._printf_core) for _printf_core
    printf4.o(i.__0printf$4) refers to bsp_uart.o(i.fputc) for fputc
    printf4.o(i.__0printf$4) refers to bsp_uart.o(.data) for __stdout
    printf4.o(i.__0snprintf$4) refers to printf4.o(i._printf_core) for _printf_core
    printf4.o(i.__0snprintf$4) refers to printf4.o(i._snputc) for _snputc
    printf4.o(i.__0sprintf$4) refers to printf4.o(i._printf_core) for _printf_core
    printf4.o(i.__0sprintf$4) refers to printf4.o(i._sputc) for _sputc
    printf4.o(i.__0vfprintf$4) refers to printf4.o(i._printf_core) for _printf_core
    printf4.o(i.__0vfprintf$4) refers to bsp_uart.o(i.fputc) for fputc
    printf4.o(i.__0vprintf$4) refers to printf4.o(i._printf_core) for _printf_core
    printf4.o(i.__0vprintf$4) refers to bsp_uart.o(i.fputc) for fputc
    printf4.o(i.__0vprintf$4) refers to bsp_uart.o(.data) for __stdout
    printf4.o(i.__0vsnprintf$4) refers to printf4.o(i._printf_core) for _printf_core
    printf4.o(i.__0vsnprintf$4) refers to printf4.o(i._snputc) for _snputc
    printf4.o(i.__0vsprintf$4) refers to printf4.o(i._printf_core) for _printf_core
    printf4.o(i.__0vsprintf$4) refers to printf4.o(i._sputc) for _sputc
    printf4.o(i._printf_core) refers to uldiv.o(.text) for __aeabi_uldivmod
    printf5.o(i.__0fprintf$5) refers to printf5.o(i._printf_core) for _printf_core
    printf5.o(i.__0fprintf$5) refers to bsp_uart.o(i.fputc) for fputc
    printf5.o(i.__0printf$5) refers to printf5.o(i._printf_core) for _printf_core
    printf5.o(i.__0printf$5) refers to bsp_uart.o(i.fputc) for fputc
    printf5.o(i.__0printf$5) refers to bsp_uart.o(.data) for __stdout
    printf5.o(i.__0snprintf$5) refers to printf5.o(i._printf_core) for _printf_core
    printf5.o(i.__0snprintf$5) refers to printf5.o(i._snputc) for _snputc
    printf5.o(i.__0sprintf$5) refers to printf5.o(i._printf_core) for _printf_core
    printf5.o(i.__0sprintf$5) refers to printf5.o(i._sputc) for _sputc
    printf5.o(i.__0vfprintf$5) refers to printf5.o(i._printf_core) for _printf_core
    printf5.o(i.__0vfprintf$5) refers to bsp_uart.o(i.fputc) for fputc
    printf5.o(i.__0vprintf$5) refers to printf5.o(i._printf_core) for _printf_core
    printf5.o(i.__0vprintf$5) refers to bsp_uart.o(i.fputc) for fputc
    printf5.o(i.__0vprintf$5) refers to bsp_uart.o(.data) for __stdout
    printf5.o(i.__0vsnprintf$5) refers to printf5.o(i._printf_core) for _printf_core
    printf5.o(i.__0vsnprintf$5) refers to printf5.o(i._snputc) for _snputc
    printf5.o(i.__0vsprintf$5) refers to printf5.o(i._printf_core) for _printf_core
    printf5.o(i.__0vsprintf$5) refers to printf5.o(i._sputc) for _sputc
    printf5.o(i._printf_core) refers to uldiv.o(.text) for __aeabi_uldivmod
    printf6.o(i.__0fprintf$6) refers to printf6.o(i._printf_core) for _printf_core
    printf6.o(i.__0fprintf$6) refers to bsp_uart.o(i.fputc) for fputc
    printf6.o(i.__0printf$6) refers to printf6.o(i._printf_core) for _printf_core
    printf6.o(i.__0printf$6) refers to bsp_uart.o(i.fputc) for fputc
    printf6.o(i.__0printf$6) refers to bsp_uart.o(.data) for __stdout
    printf6.o(i.__0snprintf$6) refers to printf6.o(i._printf_core) for _printf_core
    printf6.o(i.__0snprintf$6) refers to printf6.o(i._snputc) for _snputc
    printf6.o(i.__0sprintf$6) refers to printf6.o(i._printf_core) for _printf_core
    printf6.o(i.__0sprintf$6) refers to printf6.o(i._sputc) for _sputc
    printf6.o(i.__0vfprintf$6) refers to printf6.o(i._printf_core) for _printf_core
    printf6.o(i.__0vfprintf$6) refers to bsp_uart.o(i.fputc) for fputc
    printf6.o(i.__0vprintf$6) refers to printf6.o(i._printf_core) for _printf_core
    printf6.o(i.__0vprintf$6) refers to bsp_uart.o(i.fputc) for fputc
    printf6.o(i.__0vprintf$6) refers to bsp_uart.o(.data) for __stdout
    printf6.o(i.__0vsnprintf$6) refers to printf6.o(i._printf_core) for _printf_core
    printf6.o(i.__0vsnprintf$6) refers to printf6.o(i._snputc) for _snputc
    printf6.o(i.__0vsprintf$6) refers to printf6.o(i._printf_core) for _printf_core
    printf6.o(i.__0vsprintf$6) refers to printf6.o(i._sputc) for _sputc
    printf6.o(i._printf_core) refers to printf6.o(i._printf_pre_padding) for _printf_pre_padding
    printf6.o(i._printf_core) refers to uidiv.o(.text) for __aeabi_uidivmod
    printf6.o(i._printf_core) refers to printf6.o(i._printf_post_padding) for _printf_post_padding
    printf7.o(i.__0fprintf$7) refers to printf7.o(i._printf_core) for _printf_core
    printf7.o(i.__0fprintf$7) refers to bsp_uart.o(i.fputc) for fputc
    printf7.o(i.__0printf$7) refers to printf7.o(i._printf_core) for _printf_core
    printf7.o(i.__0printf$7) refers to bsp_uart.o(i.fputc) for fputc
    printf7.o(i.__0printf$7) refers to bsp_uart.o(.data) for __stdout
    printf7.o(i.__0snprintf$7) refers to printf7.o(i._printf_core) for _printf_core
    printf7.o(i.__0snprintf$7) refers to printf7.o(i._snputc) for _snputc
    printf7.o(i.__0sprintf$7) refers to printf7.o(i._printf_core) for _printf_core
    printf7.o(i.__0sprintf$7) refers to printf7.o(i._sputc) for _sputc
    printf7.o(i.__0vfprintf$7) refers to printf7.o(i._printf_core) for _printf_core
    printf7.o(i.__0vfprintf$7) refers to bsp_uart.o(i.fputc) for fputc
    printf7.o(i.__0vprintf$7) refers to printf7.o(i._printf_core) for _printf_core
    printf7.o(i.__0vprintf$7) refers to bsp_uart.o(i.fputc) for fputc
    printf7.o(i.__0vprintf$7) refers to bsp_uart.o(.data) for __stdout
    printf7.o(i.__0vsnprintf$7) refers to printf7.o(i._printf_core) for _printf_core
    printf7.o(i.__0vsnprintf$7) refers to printf7.o(i._snputc) for _snputc
    printf7.o(i.__0vsprintf$7) refers to printf7.o(i._printf_core) for _printf_core
    printf7.o(i.__0vsprintf$7) refers to printf7.o(i._sputc) for _sputc
    printf7.o(i._printf_core) refers to printf7.o(i._printf_pre_padding) for _printf_pre_padding
    printf7.o(i._printf_core) refers to uldiv.o(.text) for __aeabi_uldivmod
    printf7.o(i._printf_core) refers to printf7.o(i._printf_post_padding) for _printf_post_padding
    printf8.o(i.__0fprintf$8) refers to printf8.o(i._printf_core) for _printf_core
    printf8.o(i.__0fprintf$8) refers to bsp_uart.o(i.fputc) for fputc
    printf8.o(i.__0printf$8) refers to printf8.o(i._printf_core) for _printf_core
    printf8.o(i.__0printf$8) refers to bsp_uart.o(i.fputc) for fputc
    printf8.o(i.__0printf$8) refers to bsp_uart.o(.data) for __stdout
    printf8.o(i.__0snprintf$8) refers to printf8.o(i._printf_core) for _printf_core
    printf8.o(i.__0snprintf$8) refers to printf8.o(i._snputc) for _snputc
    printf8.o(i.__0sprintf$8) refers to printf8.o(i._printf_core) for _printf_core
    printf8.o(i.__0sprintf$8) refers to printf8.o(i._sputc) for _sputc
    printf8.o(i.__0vfprintf$8) refers to printf8.o(i._printf_core) for _printf_core
    printf8.o(i.__0vfprintf$8) refers to bsp_uart.o(i.fputc) for fputc
    printf8.o(i.__0vprintf$8) refers to printf8.o(i._printf_core) for _printf_core
    printf8.o(i.__0vprintf$8) refers to bsp_uart.o(i.fputc) for fputc
    printf8.o(i.__0vprintf$8) refers to bsp_uart.o(.data) for __stdout
    printf8.o(i.__0vsnprintf$8) refers to printf8.o(i._printf_core) for _printf_core
    printf8.o(i.__0vsnprintf$8) refers to printf8.o(i._snputc) for _snputc
    printf8.o(i.__0vsprintf$8) refers to printf8.o(i._printf_core) for _printf_core
    printf8.o(i.__0vsprintf$8) refers to printf8.o(i._sputc) for _sputc
    printf8.o(i._printf_core) refers to printf8.o(i._printf_pre_padding) for _printf_pre_padding
    printf8.o(i._printf_core) refers to uldiv.o(.text) for __aeabi_uldivmod
    printf8.o(i._printf_core) refers to printf8.o(i._printf_post_padding) for _printf_post_padding
    printfa.o(i.__0fprintf) refers (Special) to iusefp.o(.text) for __I$use$fp
    printfa.o(i.__0fprintf) refers to printfa.o(i._printf_core) for _printf_core
    printfa.o(i.__0fprintf) refers to bsp_uart.o(i.fputc) for fputc
    printfa.o(i.__0printf) refers (Special) to iusefp.o(.text) for __I$use$fp
    printfa.o(i.__0printf) refers to printfa.o(i._printf_core) for _printf_core
    printfa.o(i.__0printf) refers to bsp_uart.o(i.fputc) for fputc
    printfa.o(i.__0printf) refers to bsp_uart.o(.data) for __stdout
    printfa.o(i.__0snprintf) refers (Special) to iusefp.o(.text) for __I$use$fp
    printfa.o(i.__0snprintf) refers to printfa.o(i._printf_core) for _printf_core
    printfa.o(i.__0snprintf) refers to printfa.o(i._snputc) for _snputc
    printfa.o(i.__0sprintf) refers (Special) to iusefp.o(.text) for __I$use$fp
    printfa.o(i.__0sprintf) refers to printfa.o(i._printf_core) for _printf_core
    printfa.o(i.__0sprintf) refers to printfa.o(i._sputc) for _sputc
    printfa.o(i.__0vfprintf) refers (Special) to iusefp.o(.text) for __I$use$fp
    printfa.o(i.__0vfprintf) refers to printfa.o(i._printf_core) for _printf_core
    printfa.o(i.__0vfprintf) refers to bsp_uart.o(i.fputc) for fputc
    printfa.o(i.__0vprintf) refers (Special) to iusefp.o(.text) for __I$use$fp
    printfa.o(i.__0vprintf) refers to printfa.o(i._printf_core) for _printf_core
    printfa.o(i.__0vprintf) refers to bsp_uart.o(i.fputc) for fputc
    printfa.o(i.__0vprintf) refers to bsp_uart.o(.data) for __stdout
    printfa.o(i.__0vsnprintf) refers (Special) to iusefp.o(.text) for __I$use$fp
    printfa.o(i.__0vsnprintf) refers to printfa.o(i._printf_core) for _printf_core
    printfa.o(i.__0vsnprintf) refers to printfa.o(i._snputc) for _snputc
    printfa.o(i.__0vsprintf) refers (Special) to iusefp.o(.text) for __I$use$fp
    printfa.o(i.__0vsprintf) refers to printfa.o(i._printf_core) for _printf_core
    printfa.o(i.__0vsprintf) refers to printfa.o(i._sputc) for _sputc
    printfa.o(i._fp_digits) refers (Special) to iusefp.o(.text) for __I$use$fp
    printfa.o(i._fp_digits) refers to dmul.o(.text) for __aeabi_dmul
    printfa.o(i._fp_digits) refers to ddiv.o(.text) for __aeabi_ddiv
    printfa.o(i._fp_digits) refers to cdrcmple.o(.text) for __aeabi_cdrcmple
    printfa.o(i._fp_digits) refers to dadd.o(.text) for __aeabi_dadd
    printfa.o(i._fp_digits) refers to dfixul.o(.text) for __aeabi_d2ulz
    printfa.o(i._fp_digits) refers to uldiv.o(.text) for __aeabi_uldivmod
    printfa.o(i._printf_core) refers (Special) to iusefp.o(.text) for __I$use$fp
    printfa.o(i._printf_core) refers to printfa.o(i._printf_pre_padding) for _printf_pre_padding
    printfa.o(i._printf_core) refers to uldiv.o(.text) for __aeabi_uldivmod
    printfa.o(i._printf_core) refers to printfa.o(i._printf_post_padding) for _printf_post_padding
    printfa.o(i._printf_core) refers to printfa.o(i._fp_digits) for _fp_digits
    printfa.o(i._printf_core) refers to uidiv.o(.text) for __aeabi_uidivmod
    printfa.o(i._printf_post_padding) refers (Special) to iusefp.o(.text) for __I$use$fp
    printfa.o(i._printf_pre_padding) refers (Special) to iusefp.o(.text) for __I$use$fp
    printfa.o(i._snputc) refers (Special) to iusefp.o(.text) for __I$use$fp
    printfa.o(i._sputc) refers (Special) to iusefp.o(.text) for __I$use$fp
    entry2.o(.ARM.Collect$$$$00000001) refers to entry2.o(.ARM.Collect$$$$00002712) for __lit__00000000
    entry2.o(.ARM.Collect$$$$00002712) refers to startup_sky32b750.o(STACK) for __initial_sp
    entry2.o(__vectab_stack_and_reset_area) refers to startup_sky32b750.o(STACK) for __initial_sp
    entry2.o(__vectab_stack_and_reset_area) refers to entry.o(.ARM.Collect$$$$00000000) for __main
    entry5.o(.ARM.Collect$$$$00000004) refers to init.o(.text) for __scatterload
    entry9a.o(.ARM.Collect$$$$0000000B) refers to main.o(i.main) for main
    entry9b.o(.ARM.Collect$$$$0000000C) refers to main.o(i.main) for main
    dadd.o(.text) refers to llshl.o(.text) for __aeabi_llsl
    dadd.o(.text) refers to llsshr.o(.text) for __aeabi_lasr
    dadd.o(.text) refers to depilogue.o(.text) for _double_epilogue
    dmul.o(.text) refers to depilogue.o(.text) for _double_epilogue
    ddiv.o(.text) refers to depilogue.o(.text) for _double_round
    dfixul.o(.text) refers to llushr.o(.text) for __aeabi_llsr
    dfixul.o(.text) refers to llshl.o(.text) for __aeabi_llsl
    init.o(.text) refers to entry5.o(.ARM.Collect$$$$00000004) for __main_after_scatterload
    depilogue.o(.text) refers to llshl.o(.text) for __aeabi_llsl
    depilogue.o(.text) refers to llushr.o(.text) for __aeabi_llsr


==============================================================================

Removing Unused input sections from the image.

    Removing startup_sky32b750.o(HEAP), (2048 bytes).
    Removing system_sky32b750.o(.rev16_text), (4 bytes).
    Removing system_sky32b750.o(.revsh_text), (4 bytes).
    Removing system_sky32b750.o(.rrx_text), (6 bytes).
    Removing system_sky32b750.o(i.CPU_Sleep), (20 bytes).
    Removing system_sky32b750.o(i.Cache_Disable), (252 bytes).
    Removing system_sky32b750.o(i.Cache_Enable), (304 bytes).
    Removing system_sky32b750.o(i.Cache_Invalidate), (208 bytes).
    Removing system_sky32b750.o(i.Deep_Sleep), (52 bytes).
    Removing system_sky32b750.o(i.FPU_Disable), (100 bytes).
    Removing system_sky32b750.o(i.Get_SysClk_Config), (132 bytes).
    Removing system_sky32b750.o(i.HRC_System_Clock_Update), (188 bytes).
    Removing system_sky32b750.o(i.HXTAL_Caliber_LRC), (272 bytes).
    Removing system_sky32b750.o(i.LRC_Caliber_HRC), (220 bytes).
    Removing system_sky32b750.o(i.Power_Down), (52 bytes).
    Removing system_sky32b750.o(i.Register_Lock), (32 bytes).
    Removing system_sky32b750.o(i.Register_UnLock), (40 bytes).
    Removing system_sky32b750.o(i.Set_BOR_Threshold), (24 bytes).
    Removing system_sky32b750.o(i.Set_CanClk_Div), (22 bytes).
    Removing system_sky32b750.o(i.Set_HRC), (52 bytes).
    Removing system_sky32b750.o(i.Set_LPLDO_Voltage), (24 bytes).
    Removing system_sky32b750.o(i.Set_SysClk_Config), (164 bytes).
    Removing delay.o(.rev16_text), (4 bytes).
    Removing delay.o(.revsh_text), (4 bytes).
    Removing delay.o(.rrx_text), (6 bytes).
    Removing delay.o(i.Calib_SW_ms), (88 bytes).
    Removing delay.o(i.HW_Delay_ms), (100 bytes).
    Removing delay.o(i.HW_Delay_us), (68 bytes).
    Removing delay.o(i.SW_Delay_ms), (32 bytes).
    Removing delay.o(i.SW_Delay_us), (22 bytes).
    Removing mpu.o(.rev16_text), (4 bytes).
    Removing mpu.o(.revsh_text), (4 bytes).
    Removing mpu.o(.rrx_text), (6 bytes).
    Removing mpu.o(i.MPU_Config), (808 bytes).
    Removing mpu.o(i.MPU_ConfigRegion), (76 bytes).
    Removing pinmux.o(.rev16_text), (4 bytes).
    Removing pinmux.o(.revsh_text), (4 bytes).
    Removing pinmux.o(.rrx_text), (6 bytes).
    Removing usci.o(.rev16_text), (4 bytes).
    Removing usci.o(.revsh_text), (4 bytes).
    Removing usci.o(.rrx_text), (6 bytes).
    Removing usci.o(i.USCI_Disable), (224 bytes).
    Removing usci.o(i.USCI_Enable), (224 bytes).
    Removing usci.o(i.USCI_SPI_Receive), (152 bytes).
    Removing usci.o(i.USCI_SPI_Slave_Receive), (68 bytes).
    Removing usci.o(i.USCI_SPI_Slave_Transmit), (88 bytes).
    Removing usci.o(i.USCI_SPI_TRx), (92 bytes).
    Removing usci.o(i.USCI_SPI_Transmit), (88 bytes).
    Removing usci.o(i.USCI_U7816_Cmd), (20 bytes).
    Removing usci.o(i.USCI_U7816_Init), (90 bytes).
    Removing usci.o(i.USCI_U7816_Receive), (98 bytes).
    Removing usci.o(i.USCI_U7816_Transmit), (118 bytes).
    Removing usci.o(i.USCI_UART_Receive), (68 bytes).
    Removing dma.o(.rev16_text), (4 bytes).
    Removing dma.o(.revsh_text), (4 bytes).
    Removing dma.o(.rrx_text), (6 bytes).
    Removing dma.o(i.DMA_Channel_Disable), (68 bytes).
    Removing dma.o(i.DMA_Channel_Irq_Enable), (34 bytes).
    Removing dma.o(i.DMA_Channel_Irq_IsEnable), (36 bytes).
    Removing dma.o(i.DMA_Get_FreeChannel), (96 bytes).
    Removing dma.o(i.DMA_RawIrq_IsActive), (152 bytes).
    Removing dma.o(i.DMA_Unmask_Irq), (168 bytes).
    Removing wdt.o(.rev16_text), (4 bytes).
    Removing wdt.o(.revsh_text), (4 bytes).
    Removing wdt.o(.rrx_text), (6 bytes).
    Removing wdt.o(i.WDT_Open), (28 bytes).
    Removing wdt.o(i.WDT_Reset), (24 bytes).
    Removing wdt.o(i.WDT_Set_ms), (32 bytes).
    Removing fadc.o(.rev16_text), (4 bytes).
    Removing fadc.o(.revsh_text), (4 bytes).
    Removing fadc.o(.rrx_text), (6 bytes).
    Removing fadc.o(i.FADC_SPI_ReadSingle), (88 bytes).
    Removing fadc.o(i.FADC_WriteW10T), (18 bytes).
    Removing fadc.o(i.FADC_WriteW11T), (58 bytes).
    Removing fadc.o(i.FADC_WriteW4T), (40 bytes).
    Removing fadc.o(i.FADC_WriteW5T), (40 bytes).
    Removing fadc.o(i.FADC_WriteW6T), (40 bytes).
    Removing fadc.o(i.FADC_WriteW7T), (40 bytes).
    Removing fadc.o(i.FADC_WriteW8T), (40 bytes).
    Removing fadc.o(i.FADC_WriteW9T), (18 bytes).
    Removing efc.o(.rev16_text), (4 bytes).
    Removing efc.o(.revsh_text), (4 bytes).
    Removing efc.o(.rrx_text), (6 bytes).
    Removing efc.o(i.EFC_Erase1Page), (100 bytes).
    Removing efc.o(i.EFC_Erase1Page_and_Check), (52 bytes).
    Removing efc.o(i.EFC_Read), (42 bytes).
    Removing efc.o(i.EFC_Set_Boot_Addr), (56 bytes).
    Removing efc.o(i.EFC_Set_Info_Ro_Addr), (68 bytes).
    Removing efc.o(i.EFC_Set_Main_Ro_Addr), (64 bytes).
    Removing efc.o(i.EFC_Write1Byte), (94 bytes).
    Removing efc.o(i.EFC_Write1Page), (164 bytes).
    Removing efc.o(i.EFC_Write1Page_and_Check), (88 bytes).
    Removing efc.o(i.EFC_Write_Bytes), (246 bytes).
    Removing efc.o(i.EFC_Write_Words), (104 bytes).
    Removing gpio.o(.rev16_text), (4 bytes).
    Removing gpio.o(.revsh_text), (4 bytes).
    Removing gpio.o(.rrx_text), (6 bytes).
    Removing gpio.o(i.GPIO_AT_Ctrl), (204 bytes).
    Removing gpio.o(i.GPIO_DisableInt), (12 bytes).
    Removing gpio.o(i.GPIO_EnableInt), (50 bytes).
    Removing gpio.o(i.GPIO_OD_Ctrl), (204 bytes).
    Removing gpio.o(i.GPIO_PullDown), (140 bytes).
    Removing gpio.o(i.GPIO_RE_Ctrl), (204 bytes).
    Removing rtc.o(.rev16_text), (4 bytes).
    Removing rtc.o(.revsh_text), (4 bytes).
    Removing rtc.o(.rrx_text), (6 bytes).
    Removing rtc.o(i.RTC_Disable), (64 bytes).
    Removing rtc.o(i.RTC_Enable), (144 bytes).
    Removing rtc.o(i.RTC_Get_Current_Value), (20 bytes).
    Removing rtc.o(i.RTC_Pulse_Config), (36 bytes).
    Removing rtc.o(i.RTC_Reset), (32 bytes).
    Removing rtc.o(i.RTC_Wakeup_ms), (72 bytes).
    Removing rtc.o(i.RTC_Wakeup_sec), (76 bytes).
    Removing rtc.o(.data), (4 bytes).
    Removing ospi.o(.rev16_text), (4 bytes).
    Removing ospi.o(.revsh_text), (4 bytes).
    Removing ospi.o(.rrx_text), (6 bytes).
    Removing ospi.o(i.OSPI_CS_HIGH), (6 bytes).
    Removing ospi.o(i.OSPI_CS_LOW), (6 bytes).
    Removing timerb.o(.rev16_text), (4 bytes).
    Removing timerb.o(.revsh_text), (4 bytes).
    Removing timerb.o(.rrx_text), (6 bytes).
    Removing timerb.o(i.TMRB_Close), (80 bytes).
    Removing timerb.o(i.TMRB_Open), (316 bytes).
    Removing timerb.o(i.TMRB_mDelay), (404 bytes).
    Removing timerb.o(i.TMRB_uDelay), (408 bytes).
    Removing timerb.o(i.TMRB_uTimeout), (460 bytes).
    Removing croutine.o(.rev16_text), (4 bytes).
    Removing croutine.o(.revsh_text), (4 bytes).
    Removing croutine.o(.rrx_text), (6 bytes).
    Removing event_groups.o(.rev16_text), (4 bytes).
    Removing event_groups.o(.revsh_text), (4 bytes).
    Removing event_groups.o(.rrx_text), (6 bytes).
    Removing event_groups.o(i.prvTestWaitCondition), (30 bytes).
    Removing event_groups.o(i.uxEventGroupGetNumber), (14 bytes).
    Removing event_groups.o(i.vEventGroupClearBitsCallback), (16 bytes).
    Removing event_groups.o(i.vEventGroupDelete), (42 bytes).
    Removing event_groups.o(i.vEventGroupSetBitsCallback), (16 bytes).
    Removing event_groups.o(i.xEventGroupClearBits), (32 bytes).
    Removing event_groups.o(i.xEventGroupClearBitsFromISR), (28 bytes).
    Removing event_groups.o(i.xEventGroupCreate), (26 bytes).
    Removing event_groups.o(i.xEventGroupGetBitsFromISR), (48 bytes).
    Removing event_groups.o(i.xEventGroupSetBits), (146 bytes).
    Removing event_groups.o(i.xEventGroupSetBitsFromISR), (36 bytes).
    Removing event_groups.o(i.xEventGroupSync), (164 bytes).
    Removing event_groups.o(i.xEventGroupWaitBits), (200 bytes).
    Removing list.o(.rev16_text), (4 bytes).
    Removing list.o(.revsh_text), (4 bytes).
    Removing list.o(.rrx_text), (6 bytes).
    Removing queue.o(.rev16_text), (4 bytes).
    Removing queue.o(.revsh_text), (4 bytes).
    Removing queue.o(.rrx_text), (6 bytes).
    Removing queue.o(i.pcQueueGetName), (44 bytes).
    Removing queue.o(i.prvInitialiseMutex), (28 bytes).
    Removing queue.o(i.ucQueueGetQueueType), (8 bytes).
    Removing queue.o(i.uxQueueGetQueueNumber), (6 bytes).
    Removing queue.o(i.uxQueueMessagesWaiting), (18 bytes).
    Removing queue.o(i.uxQueueMessagesWaitingFromISR), (6 bytes).
    Removing queue.o(i.uxQueueSpacesAvailable), (24 bytes).
    Removing queue.o(i.vQueueDelete), (20 bytes).
    Removing queue.o(i.vQueueSetQueueNumber), (4 bytes).
    Removing queue.o(i.vQueueUnregisterQueue), (48 bytes).
    Removing queue.o(i.xQueueAddToSet), (38 bytes).
    Removing queue.o(i.xQueueCreateCountingSemaphore), (26 bytes).
    Removing queue.o(i.xQueueCreateMutex), (34 bytes).
    Removing queue.o(i.xQueueCreateSet), (20 bytes).
    Removing queue.o(i.xQueueGetMutexHolder), (26 bytes).
    Removing queue.o(i.xQueueGiveFromISR), (146 bytes).
    Removing queue.o(i.xQueueGiveMutexRecursive), (48 bytes).
    Removing queue.o(i.xQueueIsQueueEmptyFromISR), (14 bytes).
    Removing queue.o(i.xQueueIsQueueFullFromISR), (18 bytes).
    Removing queue.o(i.xQueuePeekFromISR), (78 bytes).
    Removing queue.o(i.xQueueReceiveFromISR), (134 bytes).
    Removing queue.o(i.xQueueRemoveFromSet), (48 bytes).
    Removing queue.o(i.xQueueSelectFromSet), (26 bytes).
    Removing queue.o(i.xQueueSelectFromSetFromISR), (22 bytes).
    Removing queue.o(i.xQueueTakeMutexRecursive), (58 bytes).
    Removing tasks.o(.rev16_text), (4 bytes).
    Removing tasks.o(.revsh_text), (4 bytes).
    Removing tasks.o(.rrx_text), (6 bytes).
    Removing tasks.o(i.eTaskGetState), (108 bytes).
    Removing tasks.o(i.pcTaskGetName), (24 bytes).
    Removing tasks.o(i.prvListTasksWithinSingleList), (106 bytes).
    Removing tasks.o(i.prvTaskCheckFreeStackSpace), (22 bytes).
    Removing tasks.o(i.prvTaskIsTaskSuspended), (64 bytes).
    Removing tasks.o(i.prvWriteNameToBuffer), (42 bytes).
    Removing tasks.o(i.uxTaskGetNumberOfTasks), (12 bytes).
    Removing tasks.o(i.uxTaskGetSystemState), (184 bytes).
    Removing tasks.o(i.uxTaskGetTaskNumber), (14 bytes).
    Removing tasks.o(i.uxTaskPriorityGet), (36 bytes).
    Removing tasks.o(i.uxTaskPriorityGetFromISR), (60 bytes).
    Removing tasks.o(i.uxTaskResetEventItemValue), (28 bytes).
    Removing tasks.o(i.vTaskDelayUntil), (116 bytes).
    Removing tasks.o(i.vTaskEndScheduler), (40 bytes).
    Removing tasks.o(i.vTaskGetInfo), (120 bytes).
    Removing tasks.o(i.vTaskGetRunTimeStats), (212 bytes).
    Removing tasks.o(i.vTaskList), (224 bytes).
    Removing tasks.o(i.vTaskPlaceOnUnorderedEventList), (44 bytes).
    Removing tasks.o(i.vTaskPrioritySet), (244 bytes).
    Removing tasks.o(i.vTaskResume), (120 bytes).
    Removing tasks.o(i.vTaskSetTaskNumber), (8 bytes).
    Removing tasks.o(i.vTaskSuspend), (188 bytes).
    Removing tasks.o(i.xTaskGenericNotify), (196 bytes).
    Removing tasks.o(i.xTaskGenericNotifyFromISR), (256 bytes).
    Removing tasks.o(i.xTaskGetCurrentTaskHandle), (12 bytes).
    Removing tasks.o(i.xTaskGetTickCountFromISR), (12 bytes).
    Removing tasks.o(i.xTaskNotifyStateClear), (52 bytes).
    Removing tasks.o(i.xTaskNotifyWait), (160 bytes).
    Removing tasks.o(i.xTaskRemoveFromUnorderedEventList), (112 bytes).
    Removing tasks.o(i.xTaskResumeFromISR), (156 bytes).
    Removing timers.o(.rev16_text), (4 bytes).
    Removing timers.o(.revsh_text), (4 bytes).
    Removing timers.o(.rrx_text), (6 bytes).
    Removing timers.o(i.pcTimerGetName), (8 bytes).
    Removing timers.o(i.prvInitialiseNewTimer), (46 bytes).
    Removing timers.o(i.pvTimerGetTimerID), (20 bytes).
    Removing timers.o(i.vTimerSetTimerID), (20 bytes).
    Removing timers.o(i.xTimerCreate), (48 bytes).
    Removing timers.o(i.xTimerGetExpiryTime), (8 bytes).
    Removing timers.o(i.xTimerGetPeriod), (8 bytes).
    Removing timers.o(i.xTimerGetTimerDaemonTaskHandle), (12 bytes).
    Removing timers.o(i.xTimerIsTimerActive), (32 bytes).
    Removing timers.o(i.xTimerPendFunctionCall), (52 bytes).
    Removing timers.o(i.xTimerPendFunctionCallFromISR), (52 bytes).
    Removing heap_4.o(.rev16_text), (4 bytes).
    Removing heap_4.o(.revsh_text), (4 bytes).
    Removing heap_4.o(.rrx_text), (6 bytes).
    Removing heap_4.o(i.vPortInitialiseBlocks), (2 bytes).
    Removing heap_4.o(i.xPortGetFreeHeapSize), (12 bytes).
    Removing heap_4.o(i.xPortGetMinimumEverFreeHeapSize), (12 bytes).
    Removing port.o(.rev16_text), (4 bytes).
    Removing port.o(.revsh_text), (4 bytes).
    Removing port.o(.rrx_text), (6 bytes).
    Removing port.o(i.vPortEndScheduler), (2 bytes).
    Removing bsp_adc.o(.rev16_text), (4 bytes).
    Removing bsp_adc.o(.revsh_text), (4 bytes).
    Removing bsp_adc.o(.rrx_text), (6 bytes).
    Removing bsp_gpio.o(.rev16_text), (4 bytes).
    Removing bsp_gpio.o(.revsh_text), (4 bytes).
    Removing bsp_gpio.o(.rrx_text), (6 bytes).
    Removing bsp_gpio.o(i.BSP_ChipDisable), (20 bytes).
    Removing bsp_spi.o(.rev16_text), (4 bytes).
    Removing bsp_spi.o(.revsh_text), (4 bytes).
    Removing bsp_spi.o(.rrx_text), (6 bytes).
    Removing bsp_spi.o(.data), (8 bytes).
    Removing bsp_uart.o(.rev16_text), (4 bytes).
    Removing bsp_uart.o(.revsh_text), (4 bytes).
    Removing bsp_uart.o(.rrx_text), (6 bytes).
    Removing bsp_uart.o(i._sys_exit), (4 bytes).
    Removing bsp_uart.o(i._ttywrch), (12 bytes).
    Removing bsp_uart.o(i.ferror), (8 bytes).
    Removing bsp_uart.o(i.fgetc), (16 bytes).
    Removing bsp_uart.o(i.getkey), (4 bytes).
    Removing bsp_uart.o(i.usci_uART_rx_it), (56 bytes).
    Removing hal_bb.o(.rev16_text), (4 bytes).
    Removing hal_bb.o(.revsh_text), (4 bytes).
    Removing hal_bb.o(.rrx_text), (6 bytes).
    Removing hal_bb.o(i.BB_CpxFix2pf), (200 bytes).
    Removing hal_bb.o(i.BB_CpxFlt2pf_long), (232 bytes).
    Removing hal_bb.o(i.BB_CpxFlt2pf_short), (192 bytes).
    Removing hal_bb.o(i.BB_FFT1D_ZP_Init), (2 bytes).
    Removing hal_bb.o(i.BB_IRQ_Init), (84 bytes).
    Removing hal_bb.o(i.BB_WBUF_W64), (32 bytes).
    Removing hal_bb.o(i.BB_samprate2reg), (156 bytes).
    Removing hal_bb.o(i.BB_waitESR), (36 bytes).
    Removing hal_bb.o(i.BB_waitISR_IRQ), (140 bytes).
    Removing hal_bb.o(i.flt_max_search), (60 bytes).
    Removing hal_bb.o(.bss), (16 bytes).
    Removing hal_rf.o(.rev16_text), (4 bytes).
    Removing hal_rf.o(.revsh_text), (4 bytes).
    Removing hal_rf.o(.rrx_text), (6 bytes).
    Removing hal_rf.o(i.Hal_RF_WaveCalc), (160 bytes).
    Removing hal_rf.o(i.RF_ReadWaveSPI_AM), (140 bytes).
    Removing hal_rf.o(i.RF_WritePaSPI_AM), (64 bytes).
    Removing hal_rf.o(i.RF_WriteRegSPI_Fast), (64 bytes).
    Removing hal_rf.o(i.RF_WriteWaveSPI_AM), (84 bytes).
    Removing hal_delay.o(.rev16_text), (4 bytes).
    Removing hal_delay.o(.revsh_text), (4 bytes).
    Removing hal_delay.o(.rrx_text), (6 bytes).
    Removing hal_dma.o(.rev16_text), (4 bytes).
    Removing hal_dma.o(.revsh_text), (4 bytes).
    Removing hal_dma.o(.rrx_text), (6 bytes).
    Removing hal_dma.o(i.DMA_Start_TransferM2M_32), (228 bytes).
    Removing hal_dma.o(i.DMA_Start_TransferM2M_Flash2K_Step2), (92 bytes).
    Removing hal_dma.o(i.DMA_Start_TransferM2M_SRAM2K), (484 bytes).
    Removing hal_dma.o(i.DMA_Start_TransferM2M_SRAM2K_Step2), (104 bytes).
    Removing hal_dma.o(i.DMA_Start_TransferM2M_SRAM4K_Step2), (164 bytes).
    Removing hal_dma.o(i.DMA_Start_TransferM2M_SRAM_Step1), (120 bytes).
    Removing hal_dma.o(.bss), (96 bytes).
    Removing hal_dma.o(.data), (36 bytes).
    Removing hal_mpu.o(.rev16_text), (4 bytes).
    Removing hal_mpu.o(.revsh_text), (4 bytes).
    Removing hal_mpu.o(.rrx_text), (6 bytes).
    Removing hal_rtc.o(.rev16_text), (4 bytes).
    Removing hal_rtc.o(.revsh_text), (4 bytes).
    Removing hal_rtc.o(.rrx_text), (6 bytes).
    Removing hal_rtc.o(i.After_Config), (56 bytes).
    Removing hal_rtc.o(i.DeepSleep_Config), (16 bytes).
    Removing hal_rtc.o(i.HAL_RTC_Init), (28 bytes).
    Removing hal_rtc.o(i.Pre_Config), (104 bytes).
    Removing hal_rtc.o(.data), (12 bytes).
    Removing hal_sysclk.o(.rev16_text), (4 bytes).
    Removing hal_sysclk.o(.revsh_text), (4 bytes).
    Removing hal_sysclk.o(.rrx_text), (6 bytes).
    Removing hal_sysclk.o(i.SYS_CLK_HRC_Init), (84 bytes).
    Removing hal_wdt.o(.rev16_text), (4 bytes).
    Removing hal_wdt.o(.revsh_text), (4 bytes).
    Removing hal_wdt.o(.rrx_text), (6 bytes).
    Removing hal_wdt.o(i.Close_Wdt), (20 bytes).
    Removing hal_wdt.o(i.WDT_Init), (24 bytes).
    Removing hal_timer.o(.rev16_text), (4 bytes).
    Removing hal_timer.o(.revsh_text), (4 bytes).
    Removing hal_timer.o(.rrx_text), (6 bytes).
    Removing hal_ospi.o(.rev16_text), (4 bytes).
    Removing hal_ospi.o(.revsh_text), (4 bytes).
    Removing hal_ospi.o(.rrx_text), (6 bytes).
    Removing hal_ospi.o(i.OSPI_DMA_Trans64_IRQ), (248 bytes).
    Removing hal_ospi.o(i.OSPI_DMA_Trans64_IRQ_8kB), (248 bytes).
    Removing rf_config.o(.rev16_text), (4 bytes).
    Removing rf_config.o(.revsh_text), (4 bytes).
    Removing rf_config.o(.rrx_text), (6 bytes).
    Removing rf_config.o(i.RF_Dataprep_Switch), (172 bytes).
    Removing bb_config.o(.rev16_text), (4 bytes).
    Removing bb_config.o(.revsh_text), (4 bytes).
    Removing bb_config.o(.rrx_text), (6 bytes).
    Removing radar_config.o(.rev16_text), (4 bytes).
    Removing radar_config.o(.revsh_text), (4 bytes).
    Removing radar_config.o(.rrx_text), (6 bytes).
    Removing bb_algproc.o(.rev16_text), (4 bytes).
    Removing bb_algproc.o(.revsh_text), (4 bytes).
    Removing bb_algproc.o(.rrx_text), (6 bytes).
    Removing bb_algproc.o(i.AngleCalcD), (60 bytes).
    Removing bb_algproc.o(i.Func02_Handle), (176 bytes).
    Removing bb_algproc.o(i.angleCalcS), (132 bytes).
    Removing bb_algproc.o(i.cfarCalc), (460 bytes).
    Removing bb_algproc.o(i.cfarCalc2Col), (600 bytes).
    Removing bb_algproc.o(i.cfarCalcS), (1172 bytes).
    Removing bb_algproc.o(i.fft1dMeanCalc), (896 bytes).
    Removing bb_algproc.o(i.fft1dMeanMinus), (1132 bytes).
    Removing bb_algproc.o(i.fft1dWinVelMeanCalc), (292 bytes).
    Removing bb_algproc.o(i.fft2dAbsSum), (1520 bytes).
    Removing bb_algproc.o(i.fft2dCalc), (1052 bytes).
    Removing bb_algproc.o(i.fft3dProc), (896 bytes).
    Removing bb_algproc.o(i.fft4dProc), (680 bytes).
    Removing bb_algproc.o(i.meanMinus), (296 bytes).
    Removing bb_algproc.o(i.saveTargetAllAnt), (340 bytes).
    Removing bb_pointcloudpack.o(.rev16_text), (4 bytes).
    Removing bb_pointcloudpack.o(.revsh_text), (4 bytes).
    Removing bb_pointcloudpack.o(.rrx_text), (6 bytes).
    Removing bb_pointcloudpack.o(i.BB_PointCloudPack), (6 bytes).
    Removing bb_pointcloudpack.o(.data), (4 bytes).
    Removing bb_task.o(.rev16_text), (4 bytes).
    Removing bb_task.o(.revsh_text), (4 bytes).
    Removing bb_task.o(.rrx_text), (6 bytes).
    Removing printf_task.o(.rev16_text), (4 bytes).
    Removing printf_task.o(.revsh_text), (4 bytes).
    Removing printf_task.o(.rrx_text), (6 bytes).
    Removing printf_task.o(i.CPUMonitor_IdleHandle), (44 bytes).
    Removing printf_task.o(i.PrintTaskList), (64 bytes).
    Removing printf_task.o(i.Printf_Task_Trigger), (48 bytes).
    Removing printf_task.o(.bss), (512 bytes).
    Removing main.o(.rev16_text), (4 bytes).
    Removing main.o(.revsh_text), (4 bytes).
    Removing main.o(.rrx_text), (6 bytes).
    Removing usart_protocol.o(.rev16_text), (4 bytes).
    Removing usart_protocol.o(.revsh_text), (4 bytes).
    Removing usart_protocol.o(.rrx_text), (6 bytes).
    Removing usart_protocol.o(i.ImportData_Loop), (56 bytes).
    Removing usart_protocol.o(.data), (4 bytes).
    Removing paramconfig.o(.rev16_text), (4 bytes).
    Removing paramconfig.o(.revsh_text), (4 bytes).
    Removing paramconfig.o(.rrx_text), (6 bytes).
    Removing irq_handler.o(.rev16_text), (4 bytes).
    Removing irq_handler.o(.revsh_text), (4 bytes).
    Removing irq_handler.o(.rrx_text), (6 bytes).
    Removing dadd.o(.text), (334 bytes).
    Removing dmul.o(.text), (228 bytes).
    Removing ddiv.o(.text), (222 bytes).
    Removing dfixul.o(.text), (48 bytes).
    Removing cdrcmple.o(.text), (48 bytes).
    Removing depilogue.o(.text), (186 bytes).

381 unused section(s) (total 33094 bytes) removed from the image.

==============================================================================

Image Symbol Table

    Local Symbols

    Symbol Name                              Value     Ov Type        Size  Object(Section)

    RESET                                    0x00000000   Section      224  startup_sky32b750.o(RESET)
    ../clib/../cmprslib/zerorunl2.c          0x00000000   Number         0  __dczerorl2.o ABSOLUTE
    ../clib/microlib/division.c              0x00000000   Number         0  uidiv.o ABSOLUTE
    ../clib/microlib/division.c              0x00000000   Number         0  uldiv.o ABSOLUTE
    ../clib/microlib/init/entry.s            0x00000000   Number         0  entry10a.o ABSOLUTE
    ../clib/microlib/init/entry.s            0x00000000   Number         0  entry9b.o ABSOLUTE
    ../clib/microlib/init/entry.s            0x00000000   Number         0  entry2.o ABSOLUTE
    ../clib/microlib/init/entry.s            0x00000000   Number         0  entry5.o ABSOLUTE
    ../clib/microlib/init/entry.s            0x00000000   Number         0  entry11a.o ABSOLUTE
    ../clib/microlib/init/entry.s            0x00000000   Number         0  entry11b.o ABSOLUTE
    ../clib/microlib/init/entry.s            0x00000000   Number         0  entry7a.o ABSOLUTE
    ../clib/microlib/init/entry.s            0x00000000   Number         0  entry.o ABSOLUTE
    ../clib/microlib/init/entry.s            0x00000000   Number         0  entry7b.o ABSOLUTE
    ../clib/microlib/init/entry.s            0x00000000   Number         0  entry10b.o ABSOLUTE
    ../clib/microlib/init/entry.s            0x00000000   Number         0  entry12a.o ABSOLUTE
    ../clib/microlib/init/entry.s            0x00000000   Number         0  entry12b.o ABSOLUTE
    ../clib/microlib/init/entry.s            0x00000000   Number         0  entry8a.o ABSOLUTE
    ../clib/microlib/init/entry.s            0x00000000   Number         0  entry8b.o ABSOLUTE
    ../clib/microlib/init/entry.s            0x00000000   Number         0  entry9a.o ABSOLUTE
    ../clib/microlib/longlong.c              0x00000000   Number         0  llsshr.o ABSOLUTE
    ../clib/microlib/longlong.c              0x00000000   Number         0  llshl.o ABSOLUTE
    ../clib/microlib/longlong.c              0x00000000   Number         0  llushr.o ABSOLUTE
    ../clib/microlib/printf/printf.c         0x00000000   Number         0  printf0.o ABSOLUTE
    ../clib/microlib/printf/printf.c         0x00000000   Number         0  printfa.o ABSOLUTE
    ../clib/microlib/printf/printf.c         0x00000000   Number         0  printf1.o ABSOLUTE
    ../clib/microlib/printf/printf.c         0x00000000   Number         0  printf2.o ABSOLUTE
    ../clib/microlib/printf/printf.c         0x00000000   Number         0  printf4.o ABSOLUTE
    ../clib/microlib/printf/printf.c         0x00000000   Number         0  printf3.o ABSOLUTE
    ../clib/microlib/printf/printf.c         0x00000000   Number         0  printf5.o ABSOLUTE
    ../clib/microlib/printf/printf.c         0x00000000   Number         0  printf6.o ABSOLUTE
    ../clib/microlib/printf/printf.c         0x00000000   Number         0  printf7.o ABSOLUTE
    ../clib/microlib/printf/printf.c         0x00000000   Number         0  printf8.o ABSOLUTE
    ../clib/microlib/printf/printf.c         0x00000000   Number         0  printfb.o ABSOLUTE
    ../clib/microlib/printf/stubs.s          0x00000000   Number         0  stubs.o ABSOLUTE
    ../clib/microlib/string/memcmp.c         0x00000000   Number         0  memcmp.o ABSOLUTE
    ../clib/microlib/string/memcpy.c         0x00000000   Number         0  memcpya.o ABSOLUTE
    ../clib/microlib/string/memcpy.c         0x00000000   Number         0  memcpyb.o ABSOLUTE
    ../clib/microlib/string/memset.c         0x00000000   Number         0  memseta.o ABSOLUTE
    ../clib/microlib/string/strcpy.c         0x00000000   Number         0  strcpy.o ABSOLUTE
    ../clib/microlib/string/strlen.c         0x00000000   Number         0  strlen.o ABSOLUTE
    ../clib/microlib/stubs.s                 0x00000000   Number         0  iusefp.o ABSOLUTE
    ../fplib/microlib/fpadd.c                0x00000000   Number         0  dadd.o ABSOLUTE
    ../fplib/microlib/fpdiv.c                0x00000000   Number         0  ddiv.o ABSOLUTE
    ../fplib/microlib/fpepilogue.c           0x00000000   Number         0  depilogue.o ABSOLUTE
    ../fplib/microlib/fpfix.c                0x00000000   Number         0  dfixul.o ABSOLUTE
    ../fplib/microlib/fpmul.c                0x00000000   Number         0  dmul.o ABSOLUTE
    ..\..\..\0_Library\Device\SkyRelay\SKY32B750\Source\ARM\startup_SKY32B750.s 0x00000000   Number         0  startup_sky32b750.o ABSOLUTE
    ..\..\..\0_Library\Device\SkyRelay\SKY32B750\Source\system_SKY32B750.c 0x00000000   Number         0  system_sky32b750.o ABSOLUTE
    ..\..\..\0_Library\StdDriver\Source\delay.c 0x00000000   Number         0  delay.o ABSOLUTE
    ..\..\..\0_Library\StdDriver\Source\dma.c 0x00000000   Number         0  dma.o ABSOLUTE
    ..\..\..\0_Library\StdDriver\Source\efc.c 0x00000000   Number         0  efc.o ABSOLUTE
    ..\..\..\0_Library\StdDriver\Source\fadc.c 0x00000000   Number         0  fadc.o ABSOLUTE
    ..\..\..\0_Library\StdDriver\Source\gpio.c 0x00000000   Number         0  gpio.o ABSOLUTE
    ..\..\..\0_Library\StdDriver\Source\mpu.c 0x00000000   Number         0  mpu.o ABSOLUTE
    ..\..\..\0_Library\StdDriver\Source\ospi.c 0x00000000   Number         0  ospi.o ABSOLUTE
    ..\..\..\0_Library\StdDriver\Source\pinmux.c 0x00000000   Number         0  pinmux.o ABSOLUTE
    ..\..\..\0_Library\StdDriver\Source\rtc.c 0x00000000   Number         0  rtc.o ABSOLUTE
    ..\..\..\0_Library\StdDriver\Source\timerB.c 0x00000000   Number         0  timerb.o ABSOLUTE
    ..\..\..\0_Library\StdDriver\Source\usci.c 0x00000000   Number         0  usci.o ABSOLUTE
    ..\..\..\0_Library\StdDriver\Source\wdt.c 0x00000000   Number         0  wdt.o ABSOLUTE
    ..\..\..\1_BSP\EVB1_V3.1\SDK\bsp_ADC.c   0x00000000   Number         0  bsp_adc.o ABSOLUTE
    ..\..\..\1_BSP\EVB1_V3.1\SDK\bsp_GPIO.c  0x00000000   Number         0  bsp_gpio.o ABSOLUTE
    ..\..\..\1_BSP\EVB1_V3.1\SDK\bsp_SPI.c   0x00000000   Number         0  bsp_spi.o ABSOLUTE
    ..\..\..\1_BSP\EVB1_V3.1\SDK\bsp_UART.c  0x00000000   Number         0  bsp_uart.o ABSOLUTE
    ..\..\..\2_HAL\hal_BB.c                  0x00000000   Number         0  hal_bb.o ABSOLUTE
    ..\..\..\2_HAL\hal_DMA.c                 0x00000000   Number         0  hal_dma.o ABSOLUTE
    ..\..\..\2_HAL\hal_Delay.c               0x00000000   Number         0  hal_delay.o ABSOLUTE
    ..\..\..\2_HAL\hal_MPU.c                 0x00000000   Number         0  hal_mpu.o ABSOLUTE
    ..\..\..\2_HAL\hal_OSPI.c                0x00000000   Number         0  hal_ospi.o ABSOLUTE
    ..\..\..\2_HAL\hal_RF.c                  0x00000000   Number         0  hal_rf.o ABSOLUTE
    ..\..\..\2_HAL\hal_RTC.c                 0x00000000   Number         0  hal_rtc.o ABSOLUTE
    ..\..\..\2_HAL\hal_SysClk.c              0x00000000   Number         0  hal_sysclk.o ABSOLUTE
    ..\..\..\2_HAL\hal_Timer.c               0x00000000   Number         0  hal_timer.o ABSOLUTE
    ..\..\..\2_HAL\hal_WDT.c                 0x00000000   Number         0  hal_wdt.o ABSOLUTE
    ..\..\..\3_RTOS\freeRTOS\croutine.c      0x00000000   Number         0  croutine.o ABSOLUTE
    ..\..\..\3_RTOS\freeRTOS\event_groups.c  0x00000000   Number         0  event_groups.o ABSOLUTE
    ..\..\..\3_RTOS\freeRTOS\list.c          0x00000000   Number         0  list.o ABSOLUTE
    ..\..\..\3_RTOS\freeRTOS\portable\MemMang\heap_4.c 0x00000000   Number         0  heap_4.o ABSOLUTE
    ..\..\..\3_RTOS\freeRTOS\portable\RVDS\ARM_CM7\r0p1\port.c 0x00000000   Number         0  port.o ABSOLUTE
    ..\..\..\3_RTOS\freeRTOS\queue.c         0x00000000   Number         0  queue.o ABSOLUTE
    ..\..\..\3_RTOS\freeRTOS\tasks.c         0x00000000   Number         0  tasks.o ABSOLUTE
    ..\..\..\3_RTOS\freeRTOS\timers.c        0x00000000   Number         0  timers.o ABSOLUTE
    ..\\..\\..\\0_Library\\Device\\SkyRelay\\SKY32B750\\Source\\system_SKY32B750.c 0x00000000   Number         0  system_sky32b750.o ABSOLUTE
    ..\\..\\..\\0_Library\\StdDriver\\Source\\delay.c 0x00000000   Number         0  delay.o ABSOLUTE
    ..\\..\\..\\0_Library\\StdDriver\\Source\\dma.c 0x00000000   Number         0  dma.o ABSOLUTE
    ..\\..\\..\\0_Library\\StdDriver\\Source\\efc.c 0x00000000   Number         0  efc.o ABSOLUTE
    ..\\..\\..\\0_Library\\StdDriver\\Source\\fadc.c 0x00000000   Number         0  fadc.o ABSOLUTE
    ..\\..\\..\\0_Library\\StdDriver\\Source\\gpio.c 0x00000000   Number         0  gpio.o ABSOLUTE
    ..\\..\\..\\0_Library\\StdDriver\\Source\\mpu.c 0x00000000   Number         0  mpu.o ABSOLUTE
    ..\\..\\..\\0_Library\\StdDriver\\Source\\ospi.c 0x00000000   Number         0  ospi.o ABSOLUTE
    ..\\..\\..\\0_Library\\StdDriver\\Source\\pinmux.c 0x00000000   Number         0  pinmux.o ABSOLUTE
    ..\\..\\..\\0_Library\\StdDriver\\Source\\rtc.c 0x00000000   Number         0  rtc.o ABSOLUTE
    ..\\..\\..\\0_Library\\StdDriver\\Source\\timerB.c 0x00000000   Number         0  timerb.o ABSOLUTE
    ..\\..\\..\\0_Library\\StdDriver\\Source\\usci.c 0x00000000   Number         0  usci.o ABSOLUTE
    ..\\..\\..\\0_Library\\StdDriver\\Source\\wdt.c 0x00000000   Number         0  wdt.o ABSOLUTE
    ..\\..\\..\\1_BSP\\EVB1_V3.1\\SDK\\bsp_ADC.c 0x00000000   Number         0  bsp_adc.o ABSOLUTE
    ..\\..\\..\\1_BSP\\EVB1_V3.1\\SDK\\bsp_GPIO.c 0x00000000   Number         0  bsp_gpio.o ABSOLUTE
    ..\\..\\..\\1_BSP\\EVB1_V3.1\\SDK\\bsp_SPI.c 0x00000000   Number         0  bsp_spi.o ABSOLUTE
    ..\\..\\..\\1_BSP\\EVB1_V3.1\\SDK\\bsp_UART.c 0x00000000   Number         0  bsp_uart.o ABSOLUTE
    ..\\..\\..\\2_HAL\\hal_BB.c              0x00000000   Number         0  hal_bb.o ABSOLUTE
    ..\\..\\..\\2_HAL\\hal_DMA.c             0x00000000   Number         0  hal_dma.o ABSOLUTE
    ..\\..\\..\\2_HAL\\hal_Delay.c           0x00000000   Number         0  hal_delay.o ABSOLUTE
    ..\\..\\..\\2_HAL\\hal_MPU.c             0x00000000   Number         0  hal_mpu.o ABSOLUTE
    ..\\..\\..\\2_HAL\\hal_OSPI.c            0x00000000   Number         0  hal_ospi.o ABSOLUTE
    ..\\..\\..\\2_HAL\\hal_RF.c              0x00000000   Number         0  hal_rf.o ABSOLUTE
    ..\\..\\..\\2_HAL\\hal_RTC.c             0x00000000   Number         0  hal_rtc.o ABSOLUTE
    ..\\..\\..\\2_HAL\\hal_SysClk.c          0x00000000   Number         0  hal_sysclk.o ABSOLUTE
    ..\\..\\..\\2_HAL\\hal_Timer.c           0x00000000   Number         0  hal_timer.o ABSOLUTE
    ..\\..\\..\\2_HAL\\hal_WDT.c             0x00000000   Number         0  hal_wdt.o ABSOLUTE
    ..\\..\\..\\3_RTOS\\freeRTOS\\croutine.c 0x00000000   Number         0  croutine.o ABSOLUTE
    ..\\..\\..\\3_RTOS\\freeRTOS\\event_groups.c 0x00000000   Number         0  event_groups.o ABSOLUTE
    ..\\..\\..\\3_RTOS\\freeRTOS\\list.c     0x00000000   Number         0  list.o ABSOLUTE
    ..\\..\\..\\3_RTOS\\freeRTOS\\portable\\MemMang\\heap_4.c 0x00000000   Number         0  heap_4.o ABSOLUTE
    ..\\..\\..\\3_RTOS\\freeRTOS\\portable\\RVDS\\ARM_CM7\\r0p1\\port.c 0x00000000   Number         0  port.o ABSOLUTE
    ..\\..\\..\\3_RTOS\\freeRTOS\\queue.c    0x00000000   Number         0  queue.o ABSOLUTE
    ..\\..\\..\\3_RTOS\\freeRTOS\\tasks.c    0x00000000   Number         0  tasks.o ABSOLUTE
    ..\\..\\..\\3_RTOS\\freeRTOS\\timers.c   0x00000000   Number         0  timers.o ABSOLUTE
    SignalProcess\BB_AlgProc.c               0x00000000   Number         0  bb_algproc.o ABSOLUTE
    SignalProcess\BB_Config.c                0x00000000   Number         0  bb_config.o ABSOLUTE
    SignalProcess\BB_PointCloudPack.c        0x00000000   Number         0  bb_pointcloudpack.o ABSOLUTE
    SignalProcess\RF_Config.c                0x00000000   Number         0  rf_config.o ABSOLUTE
    SignalProcess\Radar_Config.c             0x00000000   Number         0  radar_config.o ABSOLUTE
    SignalProcess\\BB_AlgProc.c              0x00000000   Number         0  bb_algproc.o ABSOLUTE
    SignalProcess\\BB_Config.c               0x00000000   Number         0  bb_config.o ABSOLUTE
    SignalProcess\\BB_PointCloudPack.c       0x00000000   Number         0  bb_pointcloudpack.o ABSOLUTE
    SignalProcess\\RF_Config.c               0x00000000   Number         0  rf_config.o ABSOLUTE
    SignalProcess\\Radar_Config.c            0x00000000   Number         0  radar_config.o ABSOLUTE
    TaskManage\BB_Task.c                     0x00000000   Number         0  bb_task.o ABSOLUTE
    TaskManage\Printf_Task.c                 0x00000000   Number         0  printf_task.o ABSOLUTE
    TaskManage\\BB_Task.c                    0x00000000   Number         0  bb_task.o ABSOLUTE
    TaskManage\\Printf_Task.c                0x00000000   Number         0  printf_task.o ABSOLUTE
    User\IRQ_Handler.c                       0x00000000   Number         0  irq_handler.o ABSOLUTE
    User\ParamConfig.c                       0x00000000   Number         0  paramconfig.o ABSOLUTE
    User\Usart_Protocol.c                    0x00000000   Number         0  usart_protocol.o ABSOLUTE
    User\\IRQ_Handler.c                      0x00000000   Number         0  irq_handler.o ABSOLUTE
    User\\ParamConfig.c                      0x00000000   Number         0  paramconfig.o ABSOLUTE
    User\\Usart_Protocol.c                   0x00000000   Number         0  usart_protocol.o ABSOLUTE
    User\\main.c                             0x00000000   Number         0  main.o ABSOLUTE
    User\main.c                              0x00000000   Number         0  main.o ABSOLUTE
    cdrcmple.s                               0x00000000   Number         0  cdrcmple.o ABSOLUTE
    dc.s                                     0x00000000   Number         0  dc.o ABSOLUTE
    handlers.s                               0x00000000   Number         0  handlers.o ABSOLUTE
    init.s                                   0x00000000   Number         0  init.o ABSOLUTE
    .ARM.Collect$$$$00000000                 0x000000e0   Section        0  entry.o(.ARM.Collect$$$$00000000)
    .ARM.Collect$$$$00000001                 0x000000e0   Section        4  entry2.o(.ARM.Collect$$$$00000001)
    .ARM.Collect$$$$00000004                 0x000000e4   Section        4  entry5.o(.ARM.Collect$$$$00000004)
    .ARM.Collect$$$$00000008                 0x000000e8   Section        0  entry7b.o(.ARM.Collect$$$$00000008)
    .ARM.Collect$$$$0000000A                 0x000000e8   Section        0  entry8b.o(.ARM.Collect$$$$0000000A)
    .ARM.Collect$$$$0000000B                 0x000000e8   Section        8  entry9a.o(.ARM.Collect$$$$0000000B)
    .ARM.Collect$$$$0000000E                 0x000000f0   Section        4  entry12b.o(.ARM.Collect$$$$0000000E)
    .ARM.Collect$$$$0000000F                 0x000000f4   Section        0  entry10a.o(.ARM.Collect$$$$0000000F)
    .ARM.Collect$$$$00000011                 0x000000f4   Section        0  entry11a.o(.ARM.Collect$$$$00000011)
    .ARM.Collect$$$$00002712                 0x000000f4   Section        4  entry2.o(.ARM.Collect$$$$00002712)
    __lit__00000000                          0x000000f4   Data           4  entry2.o(.ARM.Collect$$$$00002712)
    .emb_text                                0x000000f8   Section      186  port.o(.emb_text)
    $v0                                      0x000000f8   Number         0  port.o(.emb_text)
    .text                                    0x000001b4   Section       36  startup_sky32b750.o(.text)
    $v0                                      0x000001b4   Number         0  startup_sky32b750.o(.text)
    .text                                    0x000001d8   Section        0  uldiv.o(.text)
    .text                                    0x0000023a   Section        0  llshl.o(.text)
    .text                                    0x00000258   Section        0  memcpya.o(.text)
    .text                                    0x0000027c   Section        0  memseta.o(.text)
    .text                                    0x000002a0   Section        0  memcmp.o(.text)
    .text                                    0x000002ba   Section        0  llushr.o(.text)
    .text                                    0x000002dc   Section       36  init.o(.text)
    .text                                    0x00000300   Section        0  __dczerorl2.o(.text)
    i.App_Init                               0x00000358   Section        0  main.o(i.App_Init)
    i.AsciiToDec                             0x0000036c   Section        0  usart_protocol.o(i.AsciiToDec)
    i.BB_AlgProc_Loop                        0x00000488   Section        0  bb_task.o(i.BB_AlgProc_Loop)
    i.BB_CFAR_CFG0                           0x000004c0   Section        0  hal_bb.o(i.BB_CFAR_CFG0)
    i.BB_CFAR_Vel_Init                       0x00000568   Section        0  bb_config.o(i.BB_CFAR_Vel_Init)
    i.BB_FFT2D_ZP_Init                       0x0000063c   Section        0  bb_config.o(i.BB_FFT2D_ZP_Init)
    i.BB_FFT_ZP_Clear                        0x0000088c   Section        0  hal_bb.o(i.BB_FFT_ZP_Clear)
    i.BB_IRQHandler                          0x00000918   Section        0  bb_config.o(i.BB_IRQHandler)
    i.BB_PrepConfig                          0x00000a28   Section        0  hal_bb.o(i.BB_PrepConfig)
    i.BB_Task                                0x00000bc8   Section        0  bb_task.o(i.BB_Task)
    i.BB_Task_Trigger                        0x00000bec   Section        0  bb_task.o(i.BB_Task_Trigger)
    i.BB_WBUF_W16                            0x00000c1c   Section        0  hal_bb.o(i.BB_WBUF_W16)
    i.BB_WBUF_W32                            0x00000c34   Section        0  hal_bb.o(i.BB_WBUF_W32)
    i.BB_prepBit2reg                         0x00000c4c   Section        0  hal_bb.o(i.BB_prepBit2reg)
    i.BB_prepmode2reg                        0x00000c74   Section        0  hal_bb.o(i.BB_prepmode2reg)
    i.BB_sampPT2reg                          0x00000c98   Section        0  hal_bb.o(i.BB_sampPT2reg)
    i.BB_waitISR                             0x00000d18   Section        0  hal_bb.o(i.BB_waitISR)
    i.BSP_ADC_Init                           0x00000d84   Section        0  bsp_adc.o(i.BSP_ADC_Init)
    i.BSP_ChipEn                             0x00000e38   Section        0  bsp_gpio.o(i.BSP_ChipEn)
    i.BSP_GPIO_Init                          0x00000e54   Section        0  bsp_gpio.o(i.BSP_GPIO_Init)
    i.BSP_SPI_Init                           0x00000ea8   Section        0  bsp_spi.o(i.BSP_SPI_Init)
    i.BSP_UART_Init                          0x00000f4c   Section        0  bsp_uart.o(i.BSP_UART_Init)
    i.Cnt_Delay_ms                           0x00000ffc   Section        0  hal_delay.o(i.Cnt_Delay_ms)
    i.Cnt_Delay_us                           0x00001024   Section        0  hal_delay.o(i.Cnt_Delay_us)
    i.CreateBBTask                           0x0000103c   Section        0  bb_task.o(i.CreateBBTask)
    i.CreatePrintfTask                       0x00001068   Section        0  printf_task.o(i.CreatePrintfTask)
    i.DMA_Channel_Configure                  0x00001094   Section        0  dma.o(i.DMA_Channel_Configure)
    i.DMA_Channel_Enable                     0x000011ac   Section        0  dma.o(i.DMA_Channel_Enable)
    i.DMA_Channel_Irq_Disable                0x000011dc   Section        0  dma.o(i.DMA_Channel_Irq_Disable)
    i.DMA_Clear_All_Irq                      0x00001200   Section        0  dma.o(i.DMA_Clear_All_Irq)
    i.DMA_Clear_Irq                          0x00001228   Section        0  dma.o(i.DMA_Clear_Irq)
    i.DMA_Config_Init                        0x000012c8   Section        0  hal_dma.o(i.DMA_Config_Init)
    i.DMA_Disable                            0x00001338   Section        0  dma.o(i.DMA_Disable)
    i.DMA_Enable                             0x00001350   Section        0  dma.o(i.DMA_Enable)
    i.DMA_IRQHandler                         0x0000135c   Section        0  hal_ospi.o(i.DMA_IRQHandler)
    i.DMA_Init                               0x0000148c   Section        0  dma.o(i.DMA_Init)
    i.DMA_Mask_Irq                           0x000014cc   Section        0  dma.o(i.DMA_Mask_Irq)
    i.DMA_Num2Ch                             0x0000159c   Section        0  dma.o(i.DMA_Num2Ch)
    i.Default_Param_Config                   0x000015f4   Section        0  paramconfig.o(i.Default_Param_Config)
    i.EFC_Get_ActualAddress                  0x000015f8   Section        0  efc.o(i.EFC_Get_ActualAddress)
    i.EFC_ReWrite                            0x00001648   Section        0  efc.o(i.EFC_ReWrite)
    i.EFC_WriteInside1Page                   0x000016c0   Section        0  efc.o(i.EFC_WriteInside1Page)
    i.FADC_SPI_WriteSingle                   0x00001800   Section        0  fadc.o(i.FADC_SPI_WriteSingle)
    i.FPU_Enable                             0x00001840   Section        0  system_sky32b750.o(i.FPU_Enable)
    i.Func01_Handle                          0x000018a8   Section        0  bb_algproc.o(i.Func01_Handle)
    i.GPIO_AE_Ctrl                           0x000018d8   Section        0  gpio.o(i.GPIO_AE_Ctrl)
    i.GPIO_PullUp                            0x000019a4   Section        0  gpio.o(i.GPIO_PullUp)
    i.GPIO_SetMode                           0x00001a30   Section        0  gpio.o(i.GPIO_SetMode)
    i.HAL_MPU_Init                           0x00001a44   Section        0  hal_mpu.o(i.HAL_MPU_Init)
    i.HAL_SYS_CLK_Init                       0x00001df8   Section        0  hal_sysclk.o(i.HAL_SYS_CLK_Init)
    i.Hal_RF_WaveConfig                      0x00001e0a   Section        0  hal_rf.o(i.Hal_RF_WaveConfig)
    i.Hal_RF_WaveGen                         0x00001e4c   Section        0  hal_rf.o(i.Hal_RF_WaveGen)
    i.NMI_Handler                            0x00001f60   Section        0  system_sky32b750.o(i.NMI_Handler)
    i.NVIC_EncodePriority                    0x00001fb4   Section        0  timerb.o(i.NVIC_EncodePriority)
    NVIC_EncodePriority                      0x00001fb5   Thumb Code    64  timerb.o(i.NVIC_EncodePriority)
    i.OSPI_Clear_Irq                         0x00001ff4   Section        0  ospi.o(i.OSPI_Clear_Irq)
    i.OSPI_DMA_Trans64_IRQ_16kB              0x00001ff8   Section        0  hal_ospi.o(i.OSPI_DMA_Trans64_IRQ_16kB)
    i.OSPI_Init                              0x00002158   Section        0  ospi.o(i.OSPI_Init)
    i.OSPI_Irq_IsActive                      0x000021da   Section        0  ospi.o(i.OSPI_Irq_IsActive)
    i.OSPI_MasterInit                        0x000021ec   Section        0  hal_ospi.o(i.OSPI_MasterInit)
    i.PLL_System_Clock_Update                0x00002414   Section        0  system_sky32b750.o(i.PLL_System_Clock_Update)
    i.ParamConfigInit                        0x000024d0   Section        0  paramconfig.o(i.ParamConfigInit)
    i.Peripheral_Reset                       0x000024ec   Section        0  system_sky32b750.o(i.Peripheral_Reset)
    i.PinMux_Set                             0x00002504   Section        0  pinmux.o(i.PinMux_Set)
    i.Printf_Param                           0x0000264c   Section        0  paramconfig.o(i.Printf_Param)
    i.Printf_Task                            0x00002808   Section        0  printf_task.o(i.Printf_Task)
    i.ProtocolSendPack                       0x00002830   Section        0  usart_protocol.o(i.ProtocolSendPack)
    i.Protocol_Analysis_Handle               0x00002a08   Section        0  usart_protocol.o(i.Protocol_Analysis_Handle)
    Protocol_Analysis_Handle                 0x00002a09   Thumb Code  3004  usart_protocol.o(i.Protocol_Analysis_Handle)
    i.RF_CfgInit                             0x0000360c   Section        0  rf_config.o(i.RF_CfgInit)
    i.RF_Clock40M_En                         0x00003acc   Section        0  hal_rf.o(i.RF_Clock40M_En)
    i.RF_Freq_Start_Calc                     0x00003ae0   Section        0  hal_rf.o(i.RF_Freq_Start_Calc)
    i.RF_ReadRegSPI                          0x00003cf4   Section        0  hal_rf.o(i.RF_ReadRegSPI)
    i.RF_ReadWaveSPI_C                       0x00003d58   Section        0  hal_rf.o(i.RF_ReadWaveSPI_C)
    i.RF_Reg_Reset                           0x00003db8   Section        0  rf_config.o(i.RF_Reg_Reset)
    i.RF_Reg_Set                             0x00003e30   Section        0  rf_config.o(i.RF_Reg_Set)
    i.RF_SPI_CS                              0x00003f5c   Section        0  bsp_spi.o(i.RF_SPI_CS)
    i.RF_Sweep_step_Calculate                0x00003f90   Section        0  hal_rf.o(i.RF_Sweep_step_Calculate)
    RF_Sweep_step_Calculate                  0x00003f91   Thumb Code   484  hal_rf.o(i.RF_Sweep_step_Calculate)
    i.RF_WaveSet                             0x00004184   Section        0  hal_rf.o(i.RF_WaveSet)
    i.RF_WriteCmdSPI                         0x00004200   Section        0  hal_rf.o(i.RF_WriteCmdSPI)
    i.RF_WriteRegSPI                         0x00004238   Section        0  hal_rf.o(i.RF_WriteRegSPI)
    i.RF_WriteWaveSPI_C                      0x000042d8   Section        0  hal_rf.o(i.RF_WriteWaveSPI_C)
    i.RF_waveStart                           0x000043b4   Section        0  hal_rf.o(i.RF_waveStart)
    i.RF_waveStop                            0x000043be   Section        0  hal_rf.o(i.RF_waveStop)
    i.Radar_Config_Init                      0x000043c8   Section        0  radar_config.o(i.Radar_Config_Init)
    i.Read_Param_From_Flash                  0x000046d8   Section        0  paramconfig.o(i.Read_Param_From_Flash)
    i.RecProtocol_Loop                       0x000048e4   Section        0  usart_protocol.o(i.RecProtocol_Loop)
    i.SYS_CLK_PLL_Init                       0x00004914   Section        0  hal_sysclk.o(i.SYS_CLK_PLL_Init)
    i.Set_CoreLDO_Voltage                    0x00004968   Section        0  system_sky32b750.o(i.Set_CoreLDO_Voltage)
    i.Set_Flash_WS                           0x00004980   Section        0  system_sky32b750.o(i.Set_Flash_WS)
    i.Set_PLL                                0x00004998   Section        0  system_sky32b750.o(i.Set_PLL)
    i.Set_SysClk_Div                         0x000049e8   Section        0  system_sky32b750.o(i.Set_SysClk_Div)
    i.SysTick_Handler                        0x00004a00   Section        0  irq_handler.o(i.SysTick_Handler)
    i.SysTick_Init                           0x00004a20   Section        0  hal_timer.o(i.SysTick_Init)
    i.Sys_Init                               0x00004a54   Section        0  main.o(i.Sys_Init)
    i.SystemInit                             0x00004b50   Section        0  system_sky32b750.o(i.SystemInit)
    i.TMRB0_IRQHandler                       0x00004b88   Section        0  irq_handler.o(i.TMRB0_IRQHandler)
    i.TMRB0_Init                             0x00004ba8   Section        0  hal_timer.o(i.TMRB0_Init)
    i.TMRB_Reset                             0x00004c04   Section        0  timerb.o(i.TMRB_Reset)
    i.TMRB_mTimeout                          0x00004c10   Section        0  timerb.o(i.TMRB_mTimeout)
    i.UART_Transmit_Bytes                    0x00004ddc   Section        0  bsp_uart.o(i.UART_Transmit_Bytes)
    i.USCI4_IRQHandler                       0x00004df0   Section        0  bsp_uart.o(i.USCI4_IRQHandler)
    i.USCI_Clear_ESR                         0x00004eb8   Section        0  usci.o(i.USCI_Clear_ESR)
    i.USCI_Clear_ISR                         0x00004ec0   Section        0  usci.o(i.USCI_Clear_ISR)
    i.USCI_SPI_Init                          0x00004ec8   Section        0  usci.o(i.USCI_SPI_Init)
    i.USCI_SPI_TRx_Ext                       0x00004f54   Section        0  usci.o(i.USCI_SPI_TRx_Ext)
    i.USCI_SPI_Transmit_Ext                  0x00004fe4   Section        0  usci.o(i.USCI_SPI_Transmit_Ext)
    i.USCI_UART_Init                         0x00005078   Section        0  usci.o(i.USCI_UART_Init)
    i.USCI_UART_Transmit                     0x00005114   Section        0  usci.o(i.USCI_UART_Transmit)
    i.WDT_Disable                            0x0000516c   Section        0  wdt.o(i.WDT_Disable)
    i.WDT_Enable                             0x000051a0   Section        0  wdt.o(i.WDT_Enable)
    i.WDT_RstNow                             0x000051d4   Section        0  hal_wdt.o(i.WDT_RstNow)
    i.Word2Byte                              0x000051f0   Section        0  usart_protocol.o(i.Word2Byte)
    i.__0printf$8                            0x00005200   Section        0  printf8.o(i.__0printf$8)
    i.__NVIC_EnableIRQ                       0x00005220   Section        0  timerb.o(i.__NVIC_EnableIRQ)
    __NVIC_EnableIRQ                         0x00005221   Thumb Code    34  timerb.o(i.__NVIC_EnableIRQ)
    i.__NVIC_EnableIRQ                       0x00005242   Section        0  hal_timer.o(i.__NVIC_EnableIRQ)
    __NVIC_EnableIRQ                         0x00005243   Thumb Code    34  hal_timer.o(i.__NVIC_EnableIRQ)
    i.__NVIC_GetPriorityGrouping             0x00005264   Section        0  timerb.o(i.__NVIC_GetPriorityGrouping)
    __NVIC_GetPriorityGrouping               0x00005265   Thumb Code    10  timerb.o(i.__NVIC_GetPriorityGrouping)
    i.__NVIC_SetPriority                     0x00005274   Section        0  timerb.o(i.__NVIC_SetPriority)
    __NVIC_SetPriority                       0x00005275   Thumb Code    32  timerb.o(i.__NVIC_SetPriority)
    i.__NVIC_SetPriority                     0x0000529c   Section        0  hal_timer.o(i.__NVIC_SetPriority)
    __NVIC_SetPriority                       0x0000529d   Thumb Code    32  hal_timer.o(i.__NVIC_SetPriority)
    i.__scatterload_copy                     0x000052c4   Section       14  handlers.o(i.__scatterload_copy)
    i.__scatterload_null                     0x000052d2   Section        2  handlers.o(i.__scatterload_null)
    i.__scatterload_zeroinit                 0x000052d4   Section       14  handlers.o(i.__scatterload_zeroinit)
    i._printf_core                           0x000052e4   Section        0  printf8.o(i._printf_core)
    _printf_core                             0x000052e5   Thumb Code   984  printf8.o(i._printf_core)
    i._printf_post_padding                   0x000056e8   Section        0  printf8.o(i._printf_post_padding)
    _printf_post_padding                     0x000056e9   Thumb Code    36  printf8.o(i._printf_post_padding)
    i._printf_pre_padding                    0x0000570c   Section        0  printf8.o(i._printf_pre_padding)
    _printf_pre_padding                      0x0000570d   Thumb Code    46  printf8.o(i._printf_pre_padding)
    i.algStruct_Init                         0x0000573c   Section        0  radar_config.o(i.algStruct_Init)
    i.dataprep_RegSet                        0x00005e40   Section        0  bb_config.o(i.dataprep_RegSet)
    i.fft1dCalc                              0x00005f00   Section        0  bb_algproc.o(i.fft1dCalc)
    i.fft1dMeanDivCalc                       0x00006254   Section        0  hal_bb.o(i.fft1dMeanDivCalc)
    i.fftPTcalc                              0x00006298   Section        0  hal_bb.o(i.fftPTcalc)
    i.fputc                                  0x000062f6   Section        0  bsp_uart.o(i.fputc)
    i.getPointCloud                          0x00006304   Section        0  bb_algproc.o(i.getPointCloud)
    i.log2Data                               0x0000633c   Section        0  hal_bb.o(i.log2Data)
    i.main                                   0x0000639c   Section        0  main.o(i.main)
    i.mod                                    0x000063d8   Section        0  hal_rf.o(i.mod)
    i.prvAddCurrentTaskToDelayedList         0x000063e4   Section        0  tasks.o(i.prvAddCurrentTaskToDelayedList)
    prvAddCurrentTaskToDelayedList           0x000063e5   Thumb Code   124  tasks.o(i.prvAddCurrentTaskToDelayedList)
    i.prvAddNewTaskToReadyList               0x0000647c   Section        0  tasks.o(i.prvAddNewTaskToReadyList)
    prvAddNewTaskToReadyList                 0x0000647d   Thumb Code   156  tasks.o(i.prvAddNewTaskToReadyList)
    i.prvCheckForValidListAndQueue           0x00006534   Section        0  timers.o(i.prvCheckForValidListAndQueue)
    prvCheckForValidListAndQueue             0x00006535   Thumb Code    72  timers.o(i.prvCheckForValidListAndQueue)
    i.prvCheckTasksWaitingTermination        0x00006598   Section        0  tasks.o(i.prvCheckTasksWaitingTermination)
    prvCheckTasksWaitingTermination          0x00006599   Thumb Code    86  tasks.o(i.prvCheckTasksWaitingTermination)
    i.prvCopyDataFromQueue                   0x000065fc   Section        0  queue.o(i.prvCopyDataFromQueue)
    prvCopyDataFromQueue                     0x000065fd   Thumb Code    42  queue.o(i.prvCopyDataFromQueue)
    i.prvCopyDataToQueue                     0x00006626   Section        0  queue.o(i.prvCopyDataToQueue)
    prvCopyDataToQueue                       0x00006627   Thumb Code   124  queue.o(i.prvCopyDataToQueue)
    i.prvDeleteTCB                           0x000066a2   Section        0  tasks.o(i.prvDeleteTCB)
    prvDeleteTCB                             0x000066a3   Thumb Code    18  tasks.o(i.prvDeleteTCB)
    i.prvGetNextExpireTime                   0x000066b4   Section        0  timers.o(i.prvGetNextExpireTime)
    prvGetNextExpireTime                     0x000066b5   Thumb Code    36  timers.o(i.prvGetNextExpireTime)
    i.prvHeapInit                            0x000066dc   Section        0  heap_4.o(i.prvHeapInit)
    prvHeapInit                              0x000066dd   Thumb Code    98  heap_4.o(i.prvHeapInit)
    i.prvIdleTask                            0x00006758   Section        0  tasks.o(i.prvIdleTask)
    prvIdleTask                              0x00006759   Thumb Code    36  tasks.o(i.prvIdleTask)
    i.prvInitialiseNewQueue                  0x00006784   Section        0  queue.o(i.prvInitialiseNewQueue)
    prvInitialiseNewQueue                    0x00006785   Thumb Code    46  queue.o(i.prvInitialiseNewQueue)
    i.prvInitialiseNewTask                   0x000067b2   Section        0  tasks.o(i.prvInitialiseNewTask)
    prvInitialiseNewTask                     0x000067b3   Thumb Code   146  tasks.o(i.prvInitialiseNewTask)
    i.prvInitialiseTaskLists                 0x00006844   Section        0  tasks.o(i.prvInitialiseTaskLists)
    prvInitialiseTaskLists                   0x00006845   Thumb Code    70  tasks.o(i.prvInitialiseTaskLists)
    i.prvInsertBlockIntoFreeList             0x000068ac   Section        0  heap_4.o(i.prvInsertBlockIntoFreeList)
    prvInsertBlockIntoFreeList               0x000068ad   Thumb Code    96  heap_4.o(i.prvInsertBlockIntoFreeList)
    i.prvInsertTimerInActiveList             0x00006914   Section        0  timers.o(i.prvInsertTimerInActiveList)
    prvInsertTimerInActiveList               0x00006915   Thumb Code    80  timers.o(i.prvInsertTimerInActiveList)
    i.prvIsQueueEmpty                        0x0000696c   Section        0  queue.o(i.prvIsQueueEmpty)
    prvIsQueueEmpty                          0x0000696d   Thumb Code    26  queue.o(i.prvIsQueueEmpty)
    i.prvIsQueueFull                         0x00006986   Section        0  queue.o(i.prvIsQueueFull)
    prvIsQueueFull                           0x00006987   Thumb Code    30  queue.o(i.prvIsQueueFull)
    i.prvNotifyQueueSetContainer             0x000069a4   Section        0  queue.o(i.prvNotifyQueueSetContainer)
    prvNotifyQueueSetContainer               0x000069a5   Thumb Code    82  queue.o(i.prvNotifyQueueSetContainer)
    i.prvProcessExpiredTimer                 0x000069f8   Section        0  timers.o(i.prvProcessExpiredTimer)
    prvProcessExpiredTimer                   0x000069f9   Thumb Code    70  timers.o(i.prvProcessExpiredTimer)
    i.prvProcessReceivedCommands             0x00006a44   Section        0  timers.o(i.prvProcessReceivedCommands)
    prvProcessReceivedCommands               0x00006a45   Thumb Code   202  timers.o(i.prvProcessReceivedCommands)
    i.prvProcessTimerOrBlockTask             0x00006b14   Section        0  timers.o(i.prvProcessTimerOrBlockTask)
    prvProcessTimerOrBlockTask               0x00006b15   Thumb Code   102  timers.o(i.prvProcessTimerOrBlockTask)
    i.prvResetNextTaskUnblockTime            0x00006b88   Section        0  tasks.o(i.prvResetNextTaskUnblockTime)
    prvResetNextTaskUnblockTime              0x00006b89   Thumb Code    42  tasks.o(i.prvResetNextTaskUnblockTime)
    i.prvSampleTimeNow                       0x00006bbc   Section        0  timers.o(i.prvSampleTimeNow)
    prvSampleTimeNow                         0x00006bbd   Thumb Code    40  timers.o(i.prvSampleTimeNow)
    i.prvSwitchTimerLists                    0x00006be8   Section        0  timers.o(i.prvSwitchTimerLists)
    prvSwitchTimerLists                      0x00006be9   Thumb Code   122  timers.o(i.prvSwitchTimerLists)
    i.prvTaskExitError                       0x00006c6c   Section        0  port.o(i.prvTaskExitError)
    prvTaskExitError                         0x00006c6d   Thumb Code    26  port.o(i.prvTaskExitError)
    i.prvTimerTask                           0x00006c86   Section        0  timers.o(i.prvTimerTask)
    prvTimerTask                             0x00006c87   Thumb Code    26  timers.o(i.prvTimerTask)
    i.prvUnlockQueue                         0x00006ca0   Section        0  queue.o(i.prvUnlockQueue)
    prvUnlockQueue                           0x00006ca1   Thumb Code   146  queue.o(i.prvUnlockQueue)
    i.pvPortMalloc                           0x00006d34   Section        0  heap_4.o(i.pvPortMalloc)
    i.pvTaskIncrementMutexHeldCount          0x00006e04   Section        0  tasks.o(i.pvTaskIncrementMutexHeldCount)
    i.pxPortInitialiseStack                  0x00006e24   Section        0  port.o(i.pxPortInitialiseStack)
    i.sampDataHandle                         0x00006e50   Section        0  bb_algproc.o(i.sampDataHandle)
    i.sendchar                               0x00006fdc   Section        0  bsp_uart.o(i.sendchar)
    i.start_task                             0x00006ff8   Section        0  main.o(i.start_task)
    i.test_dma_ch1_callback                  0x00007030   Section        0  hal_ospi.o(i.test_dma_ch1_callback)
    i.test_dma_ch2_callback                  0x000070c4   Section        0  hal_ospi.o(i.test_dma_ch2_callback)
    i.ulTaskNotifyTake                       0x00007160   Section        0  tasks.o(i.ulTaskNotifyTake)
    i.userTimerB0CallBackHand                0x000071d4   Section        0  main.o(i.userTimerB0CallBackHand)
    i.uxListRemove                           0x0000722c   Section        0  list.o(i.uxListRemove)
    i.vApplicationIdleHook                   0x00007254   Section        0  main.o(i.vApplicationIdleHook)
    i.vListInitialise                        0x00007260   Section        0  list.o(i.vListInitialise)
    i.vListInitialiseItem                    0x0000727a   Section        0  list.o(i.vListInitialiseItem)
    i.vListInsert                            0x00007280   Section        0  list.o(i.vListInsert)
    i.vListInsertEnd                         0x000072b4   Section        0  list.o(i.vListInsertEnd)
    i.vPortEnterCritical                     0x000072cc   Section        0  port.o(i.vPortEnterCritical)
    i.vPortExitCritical                      0x000072f4   Section        0  port.o(i.vPortExitCritical)
    i.vPortFree                              0x00007314   Section        0  heap_4.o(i.vPortFree)
    i.vPortSetupTimerInterrupt               0x0000735c   Section        0  port.o(i.vPortSetupTimerInterrupt)
    i.vQueueAddToRegistry                    0x0000737c   Section        0  queue.o(i.vQueueAddToRegistry)
    i.vQueueWaitForMessageRestricted         0x000073a8   Section        0  queue.o(i.vQueueWaitForMessageRestricted)
    i.vTaskDelay                             0x000073f4   Section        0  tasks.o(i.vTaskDelay)
    i.vTaskDelete                            0x00007428   Section        0  tasks.o(i.vTaskDelete)
    i.vTaskMissedYield                       0x000074f4   Section        0  tasks.o(i.vTaskMissedYield)
    i.vTaskNotifyGiveFromISR                 0x00007500   Section        0  tasks.o(i.vTaskNotifyGiveFromISR)
    i.vTaskPlaceOnEventList                  0x000075b8   Section        0  tasks.o(i.vTaskPlaceOnEventList)
    i.vTaskPlaceOnEventListRestricted        0x000075d8   Section        0  tasks.o(i.vTaskPlaceOnEventListRestricted)
    i.vTaskPriorityInherit                   0x00007600   Section        0  tasks.o(i.vTaskPriorityInherit)
    i.vTaskSetTimeOutState                   0x000076b0   Section        0  tasks.o(i.vTaskSetTimeOutState)
    i.vTaskStartScheduler                    0x000076c8   Section        0  tasks.o(i.vTaskStartScheduler)
    i.vTaskSuspendAll                        0x00007744   Section        0  tasks.o(i.vTaskSuspendAll)
    i.vTaskSwitchContext                     0x00007754   Section        0  tasks.o(i.vTaskSwitchContext)
    i.xPortStartScheduler                    0x000077f4   Section        0  port.o(i.xPortStartScheduler)
    i.xPortSysTickHandler                    0x0000783c   Section        0  port.o(i.xPortSysTickHandler)
    i.xQueueGenericCreate                    0x00007874   Section        0  queue.o(i.xQueueGenericCreate)
    i.xQueueGenericReceive                   0x000078ac   Section        0  queue.o(i.xQueueGenericReceive)
    i.xQueueGenericReset                     0x00007a08   Section        0  queue.o(i.xQueueGenericReset)
    i.xQueueGenericSend                      0x00007a88   Section        0  queue.o(i.xQueueGenericSend)
    i.xQueueGenericSendFromISR               0x00007bc0   Section        0  queue.o(i.xQueueGenericSendFromISR)
    i.xTaskCheckForTimeOut                   0x00007c60   Section        0  tasks.o(i.xTaskCheckForTimeOut)
    i.xTaskCreate                            0x00007cbc   Section        0  tasks.o(i.xTaskCreate)
    i.xTaskGetSchedulerState                 0x00007d1c   Section        0  tasks.o(i.xTaskGetSchedulerState)
    i.xTaskGetTickCount                      0x00007d3c   Section        0  tasks.o(i.xTaskGetTickCount)
    i.xTaskIncrementTick                     0x00007d48   Section        0  tasks.o(i.xTaskIncrementTick)
    i.xTaskPriorityDisinherit                0x00007e64   Section        0  tasks.o(i.xTaskPriorityDisinherit)
    i.xTaskRemoveFromEventList               0x00007ee8   Section        0  tasks.o(i.xTaskRemoveFromEventList)
    i.xTaskResumeAll                         0x00007f68   Section        0  tasks.o(i.xTaskResumeAll)
    i.xTimerCreateTimerTask                  0x00008050   Section        0  timers.o(i.xTimerCreateTimerTask)
    i.xTimerGenericCommand                   0x00008090   Section        0  timers.o(i.xTimerGenericCommand)
    .constdata                               0x000080fc   Section     4224  radar_config.o(.constdata)
    .conststring                             0x0000917c   Section       78  paramconfig.o(.conststring)
    .data                                    0x20000000   Section       44  system_sky32b750.o(.data)
    .data                                    0x2000002c   Section        8  efc.o(.data)
    .data                                    0x20000034   Section       68  tasks.o(.data)
    pxDelayedTaskList                        0x20000038   Data           4  tasks.o(.data)
    pxOverflowDelayedTaskList                0x2000003c   Data           4  tasks.o(.data)
    uxDeletedTasksWaitingCleanUp             0x20000040   Data           4  tasks.o(.data)
    uxCurrentNumberOfTasks                   0x20000044   Data           4  tasks.o(.data)
    xTickCount                               0x20000048   Data           4  tasks.o(.data)
    uxTopReadyPriority                       0x2000004c   Data           4  tasks.o(.data)
    xSchedulerRunning                        0x20000050   Data           4  tasks.o(.data)
    uxPendedTicks                            0x20000054   Data           4  tasks.o(.data)
    xYieldPending                            0x20000058   Data           4  tasks.o(.data)
    xNumOfOverflows                          0x2000005c   Data           4  tasks.o(.data)
    uxTaskNumber                             0x20000060   Data           4  tasks.o(.data)
    xNextTaskUnblockTime                     0x20000064   Data           4  tasks.o(.data)
    xIdleTaskHandle                          0x20000068   Data           4  tasks.o(.data)
    uxSchedulerSuspended                     0x2000006c   Data           4  tasks.o(.data)
    ulTaskSwitchedInTime                     0x20000070   Data           4  tasks.o(.data)
    ulTotalRunTime                           0x20000074   Data           4  tasks.o(.data)
    .data                                    0x20000078   Section       20  timers.o(.data)
    pxCurrentTimerList                       0x20000078   Data           4  timers.o(.data)
    pxOverflowTimerList                      0x2000007c   Data           4  timers.o(.data)
    xTimerQueue                              0x20000080   Data           4  timers.o(.data)
    xTimerTaskHandle                         0x20000084   Data           4  timers.o(.data)
    xLastTime                                0x20000088   Data           4  timers.o(.data)
    .data                                    0x2000008c   Section       24  heap_4.o(.data)
    xStart                                   0x2000008c   Data           8  heap_4.o(.data)
    pxEnd                                    0x20000094   Data           4  heap_4.o(.data)
    xFreeBytesRemaining                      0x20000098   Data           4  heap_4.o(.data)
    xMinimumEverFreeBytesRemaining           0x2000009c   Data           4  heap_4.o(.data)
    xBlockAllocatedBit                       0x200000a0   Data           4  heap_4.o(.data)
    .data                                    0x200000a4   Section        4  port.o(.data)
    uxCriticalNesting                        0x200000a4   Data           4  port.o(.data)
    .data                                    0x200000a8   Section        8  bsp_uart.o(.data)
    .data                                    0x200000b0   Section       12  hal_sysclk.o(.data)
    .data                                    0x200000bc   Section        2  hal_ospi.o(.data)
    .data                                    0x200000c0   Section       40  bb_config.o(.data)
    .data                                    0x200000e8   Section       56  radar_config.o(.data)
    .data                                    0x20000120   Section       17  bb_algproc.o(.data)
    .data                                    0x20000134   Section        8  bb_task.o(.data)
    .data                                    0x2000013c   Section        8  printf_task.o(.data)
    cnt                                      0x20000140   Data           4  printf_task.o(.data)
    .data                                    0x20000144   Section       20  main.o(.data)
    .data                                    0x20000158   Section        8  irq_handler.o(.data)
    .bss                                     0x20000160   Section       24  dma.o(.bss)
    .bss                                     0x20000178   Section       64  queue.o(.bss)
    .bss                                     0x200001b8   Section      200  tasks.o(.bss)
    pxReadyTasksLists                        0x200001b8   Data         100  tasks.o(.bss)
    xDelayedTaskList1                        0x2000021c   Data          20  tasks.o(.bss)
    xDelayedTaskList2                        0x20000230   Data          20  tasks.o(.bss)
    xPendingReadyList                        0x20000244   Data          20  tasks.o(.bss)
    xTasksWaitingTermination                 0x20000258   Data          20  tasks.o(.bss)
    xSuspendedTaskList                       0x2000026c   Data          20  tasks.o(.bss)
    .bss                                     0x20000280   Section       40  timers.o(.bss)
    xActiveTimerList1                        0x20000280   Data          20  timers.o(.bss)
    xActiveTimerList2                        0x20000294   Data          20  timers.o(.bss)
    .bss                                     0x200002a8   Section       72  bsp_spi.o(.bss)
    .bss                                     0x200002f0   Section      108  bsp_uart.o(.bss)
    .bss                                     0x2000035c   Section       20  hal_rf.o(.bss)
    .bss                                     0x20000370   Section       32  hal_ospi.o(.bss)
    .bss                                     0x20000390   Section      382  rf_config.o(.bss)
    .bss                                     0x20000510   Section      392  bb_config.o(.bss)
    .bss                                     0x20000698   Section      500  radar_config.o(.bss)
    .bss                                     0x20000890   Section       32  usart_protocol.o(.bss)
    .bss                                     0x200008b0   Section       52  paramconfig.o(.bss)
    STACK                                    0x200008e8   Section     4096  startup_sky32b750.o(STACK)
    .ARM.__AT_0x20004000                     0x20004000   Section    14336  heap_4.o(.ARM.__AT_0x20004000)
    ucHeap                                   0x20004000   Data       14336  heap_4.o(.ARM.__AT_0x20004000)

    Global Symbols

    Symbol Name                              Value     Ov Type        Size  Object(Section)

    BuildAttributes$$THM_ISAv4$E$P$D$K$B$S$7EM$VFPi5$EXTD16$VFPS$VFMA$PE$PLD8$A:L22UL41UL21$X:L11$S22US41US21$IEEE1$IW$USESV6$~STKCKD$USESV7$~SHL$OSPACE$ROPI$EBA8$MICROLIB$REQ8$PRES8$EABIv2 0x00000000   Number         0  anon$$obj.o ABSOLUTE
    __ARM_use_no_argv                        0x00000000   Number         0  main.o ABSOLUTE
    __Vectors                                0x00000000   Data           4  startup_sky32b750.o(RESET)
    _printf_a                                0x00000000   Number         0  stubs.o ABSOLUTE
    _printf_c                                0x00000000   Number         0  stubs.o ABSOLUTE
    _printf_charcount                        0x00000000   Number         0  stubs.o ABSOLUTE
    _printf_d                                0x00000000   Number         0  stubs.o ABSOLUTE
    _printf_e                                0x00000000   Number         0  stubs.o ABSOLUTE
    _printf_f                                0x00000000   Number         0  stubs.o ABSOLUTE
    _printf_flags                            0x00000000   Number         0  stubs.o ABSOLUTE
    _printf_fp_dec                           0x00000000   Number         0  stubs.o ABSOLUTE
    _printf_fp_hex                           0x00000000   Number         0  stubs.o ABSOLUTE
    _printf_g                                0x00000000   Number         0  stubs.o ABSOLUTE
    _printf_i                                0x00000000   Number         0  stubs.o ABSOLUTE
    _printf_int_dec                          0x00000000   Number         0  stubs.o ABSOLUTE
    _printf_l                                0x00000000   Number         0  stubs.o ABSOLUTE
    _printf_lc                               0x00000000   Number         0  stubs.o ABSOLUTE
    _printf_ll                               0x00000000   Number         0  stubs.o ABSOLUTE
    _printf_lld                              0x00000000   Number         0  stubs.o ABSOLUTE
    _printf_lli                              0x00000000   Number         0  stubs.o ABSOLUTE
    _printf_llo                              0x00000000   Number         0  stubs.o ABSOLUTE
    _printf_llu                              0x00000000   Number         0  stubs.o ABSOLUTE
    _printf_llx                              0x00000000   Number         0  stubs.o ABSOLUTE
    _printf_longlong_dec                     0x00000000   Number         0  stubs.o ABSOLUTE
    _printf_longlong_hex                     0x00000000   Number         0  stubs.o ABSOLUTE
    _printf_longlong_oct                     0x00000000   Number         0  stubs.o ABSOLUTE
    _printf_ls                               0x00000000   Number         0  stubs.o ABSOLUTE
    _printf_mbtowc                           0x00000000   Number         0  stubs.o ABSOLUTE
    _printf_n                                0x00000000   Number         0  stubs.o ABSOLUTE
    _printf_o                                0x00000000   Number         0  stubs.o ABSOLUTE
    _printf_p                                0x00000000   Number         0  stubs.o ABSOLUTE
    _printf_percent                          0x00000000   Number         0  stubs.o ABSOLUTE
    _printf_pre_padding                      0x00000000   Number         0  stubs.o ABSOLUTE
    _printf_return_value                     0x00000000   Number         0  stubs.o ABSOLUTE
    _printf_s                                0x00000000   Number         0  stubs.o ABSOLUTE
    _printf_sizespec                         0x00000000   Number         0  stubs.o ABSOLUTE
    _printf_str                              0x00000000   Number         0  stubs.o ABSOLUTE
    _printf_truncate_signed                  0x00000000   Number         0  stubs.o ABSOLUTE
    _printf_truncate_unsigned                0x00000000   Number         0  stubs.o ABSOLUTE
    _printf_u                                0x00000000   Number         0  stubs.o ABSOLUTE
    _printf_wc                               0x00000000   Number         0  stubs.o ABSOLUTE
    _printf_wctomb                           0x00000000   Number         0  stubs.o ABSOLUTE
    _printf_widthprec                        0x00000000   Number         0  stubs.o ABSOLUTE
    _printf_x                                0x00000000   Number         0  stubs.o ABSOLUTE
    __arm_fini_                               - Undefined Weak Reference
    __cpp_initialize__aeabi_                  - Undefined Weak Reference
    __cxa_finalize                            - Undefined Weak Reference
    _clock_init                               - Undefined Weak Reference
    _microlib_exit                            - Undefined Weak Reference
    __main                                   0x000000e1   Thumb Code     0  entry.o(.ARM.Collect$$$$00000000)
    _main_stk                                0x000000e1   Thumb Code     0  entry2.o(.ARM.Collect$$$$00000001)
    _main_scatterload                        0x000000e5   Thumb Code     0  entry5.o(.ARM.Collect$$$$00000004)
    __main_after_scatterload                 0x000000e9   Thumb Code     0  entry5.o(.ARM.Collect$$$$00000004)
    _main_clock                              0x000000e9   Thumb Code     0  entry7b.o(.ARM.Collect$$$$00000008)
    _main_cpp_init                           0x000000e9   Thumb Code     0  entry8b.o(.ARM.Collect$$$$0000000A)
    _main_init                               0x000000e9   Thumb Code     0  entry9a.o(.ARM.Collect$$$$0000000B)
    __rt_lib_shutdown_fini                   0x000000f1   Thumb Code     0  entry12b.o(.ARM.Collect$$$$0000000E)
    __rt_final_cpp                           0x000000f5   Thumb Code     0  entry10a.o(.ARM.Collect$$$$0000000F)
    __rt_final_exit                          0x000000f5   Thumb Code     0  entry11a.o(.ARM.Collect$$$$00000011)
    SVC_Handler                              0x000000f9   Thumb Code    28  port.o(.emb_text)
    __asm___6_port_c_39a90d8d__prvStartFirstTask 0x00000119   Thumb Code    28  port.o(.emb_text)
    __asm___6_port_c_39a90d8d__prvEnableVFP  0x00000139   Thumb Code    16  port.o(.emb_text)
    PendSV_Handler                           0x0000014d   Thumb Code    92  port.o(.emb_text)
    vPortGetIPSR                             0x000001ad   Thumb Code     6  port.o(.emb_text)
    Reset_Handler                            0x000001b5   Thumb Code     8  startup_sky32b750.o(.text)
    HardFault_Handler                        0x000001bf   Thumb Code     2  startup_sky32b750.o(.text)
    MemManage_Handler                        0x000001c1   Thumb Code     2  startup_sky32b750.o(.text)
    BusFault_Handler                         0x000001c3   Thumb Code     2  startup_sky32b750.o(.text)
    UsageFault_Handler                       0x000001c5   Thumb Code     2  startup_sky32b750.o(.text)
    DebugMon_Handler                         0x000001c9   Thumb Code     2  startup_sky32b750.o(.text)
    BOD_IRQHandler                           0x000001cf   Thumb Code     0  startup_sky32b750.o(.text)
    CAN0_IRQHandler                          0x000001cf   Thumb Code     0  startup_sky32b750.o(.text)
    CAN1_IRQHandler                          0x000001cf   Thumb Code     0  startup_sky32b750.o(.text)
    GPIO0_E0_IRQHandler                      0x000001cf   Thumb Code     0  startup_sky32b750.o(.text)
    GPIO0_E1_IRQHandler                      0x000001cf   Thumb Code     0  startup_sky32b750.o(.text)
    GPIO0_IRQHandler                         0x000001cf   Thumb Code     0  startup_sky32b750.o(.text)
    GPIO1_E0_IRQHandler                      0x000001cf   Thumb Code     0  startup_sky32b750.o(.text)
    GPIO1_E1_IRQHandler                      0x000001cf   Thumb Code     0  startup_sky32b750.o(.text)
    GPIO1_IRQHandler                         0x000001cf   Thumb Code     0  startup_sky32b750.o(.text)
    GPIO2_E0_IRQHandler                      0x000001cf   Thumb Code     0  startup_sky32b750.o(.text)
    GPIO2_E1_IRQHandler                      0x000001cf   Thumb Code     0  startup_sky32b750.o(.text)
    GPIO2_IRQHandler                         0x000001cf   Thumb Code     0  startup_sky32b750.o(.text)
    GPIO3_E0_IRQHandler                      0x000001cf   Thumb Code     0  startup_sky32b750.o(.text)
    GPIO3_E1_IRQHandler                      0x000001cf   Thumb Code     0  startup_sky32b750.o(.text)
    GPIO3_IRQHandler                         0x000001cf   Thumb Code     0  startup_sky32b750.o(.text)
    I2C_IRQHandler                           0x000001cf   Thumb Code     0  startup_sky32b750.o(.text)
    OSPI0_IRQHandler                         0x000001cf   Thumb Code     0  startup_sky32b750.o(.text)
    OSPI1_IRQHandler                         0x000001cf   Thumb Code     0  startup_sky32b750.o(.text)
    QSPI0_IRQHandler                         0x000001cf   Thumb Code     0  startup_sky32b750.o(.text)
    QSPI1_IRQHandler                         0x000001cf   Thumb Code     0  startup_sky32b750.o(.text)
    RES_IRQHandler                           0x000001cf   Thumb Code     0  startup_sky32b750.o(.text)
    RTC_IRQHandler                           0x000001cf   Thumb Code     0  startup_sky32b750.o(.text)
    SAR_IRQHandler                           0x000001cf   Thumb Code     0  startup_sky32b750.o(.text)
    TMRA_IRQHandler                          0x000001cf   Thumb Code     0  startup_sky32b750.o(.text)
    TMRB1_IRQHandler                         0x000001cf   Thumb Code     0  startup_sky32b750.o(.text)
    TMRB2_IRQHandler                         0x000001cf   Thumb Code     0  startup_sky32b750.o(.text)
    TMRB3_IRQHandler                         0x000001cf   Thumb Code     0  startup_sky32b750.o(.text)
    USCI0_IRQHandler                         0x000001cf   Thumb Code     0  startup_sky32b750.o(.text)
    USCI1_IRQHandler                         0x000001cf   Thumb Code     0  startup_sky32b750.o(.text)
    USCI2_IRQHandler                         0x000001cf   Thumb Code     0  startup_sky32b750.o(.text)
    USCI3_IRQHandler                         0x000001cf   Thumb Code     0  startup_sky32b750.o(.text)
    USCI5_IRQHandler                         0x000001cf   Thumb Code     0  startup_sky32b750.o(.text)
    USCI6_IRQHandler                         0x000001cf   Thumb Code     0  startup_sky32b750.o(.text)
    USCI7_IRQHandler                         0x000001cf   Thumb Code     0  startup_sky32b750.o(.text)
    WDT_IRQHandler                           0x000001cf   Thumb Code     0  startup_sky32b750.o(.text)
    WWDG_IRQHandler                          0x000001cf   Thumb Code     0  startup_sky32b750.o(.text)
    __aeabi_uldivmod                         0x000001d9   Thumb Code    98  uldiv.o(.text)
    __aeabi_llsl                             0x0000023b   Thumb Code    30  llshl.o(.text)
    _ll_shift_l                              0x0000023b   Thumb Code     0  llshl.o(.text)
    __aeabi_memcpy                           0x00000259   Thumb Code    36  memcpya.o(.text)
    __aeabi_memcpy4                          0x00000259   Thumb Code     0  memcpya.o(.text)
    __aeabi_memcpy8                          0x00000259   Thumb Code     0  memcpya.o(.text)
    __aeabi_memset                           0x0000027d   Thumb Code    14  memseta.o(.text)
    __aeabi_memset4                          0x0000027d   Thumb Code     0  memseta.o(.text)
    __aeabi_memset8                          0x0000027d   Thumb Code     0  memseta.o(.text)
    __aeabi_memclr                           0x0000028b   Thumb Code     4  memseta.o(.text)
    __aeabi_memclr4                          0x0000028b   Thumb Code     0  memseta.o(.text)
    __aeabi_memclr8                          0x0000028b   Thumb Code     0  memseta.o(.text)
    _memset$wrapper                          0x0000028f   Thumb Code    18  memseta.o(.text)
    memcmp                                   0x000002a1   Thumb Code    26  memcmp.o(.text)
    __aeabi_llsr                             0x000002bb   Thumb Code    32  llushr.o(.text)
    _ll_ushift_r                             0x000002bb   Thumb Code     0  llushr.o(.text)
    __scatterload                            0x000002dd   Thumb Code    28  init.o(.text)
    __scatterload_rt2                        0x000002dd   Thumb Code     0  init.o(.text)
    __decompress                             0x00000301   Thumb Code     0  __dczerorl2.o(.text)
    __decompress1                            0x00000301   Thumb Code    86  __dczerorl2.o(.text)
    App_Init                                 0x00000359   Thumb Code    14  main.o(i.App_Init)
    AsciiToDec                               0x0000036d   Thumb Code   284  usart_protocol.o(i.AsciiToDec)
    BB_AlgProc_Loop                          0x00000489   Thumb Code    40  bb_task.o(i.BB_AlgProc_Loop)
    BB_CFAR_CFG0                             0x000004c1   Thumb Code   164  hal_bb.o(i.BB_CFAR_CFG0)
    BB_CFAR_Vel_Init                         0x00000569   Thumb Code   196  bb_config.o(i.BB_CFAR_Vel_Init)
    BB_FFT2D_ZP_Init                         0x0000063d   Thumb Code   584  bb_config.o(i.BB_FFT2D_ZP_Init)
    BB_FFT_ZP_Clear                          0x0000088d   Thumb Code   134  hal_bb.o(i.BB_FFT_ZP_Clear)
    BB_IRQHandler                            0x00000919   Thumb Code   238  bb_config.o(i.BB_IRQHandler)
    BB_PrepConfig                            0x00000a29   Thumb Code   414  hal_bb.o(i.BB_PrepConfig)
    BB_Task                                  0x00000bc9   Thumb Code    32  bb_task.o(i.BB_Task)
    BB_Task_Trigger                          0x00000bed   Thumb Code    38  bb_task.o(i.BB_Task_Trigger)
    BB_WBUF_W16                              0x00000c1d   Thumb Code    24  hal_bb.o(i.BB_WBUF_W16)
    BB_WBUF_W32                              0x00000c35   Thumb Code    24  hal_bb.o(i.BB_WBUF_W32)
    BB_prepBit2reg                           0x00000c4d   Thumb Code    40  hal_bb.o(i.BB_prepBit2reg)
    BB_prepmode2reg                          0x00000c75   Thumb Code    36  hal_bb.o(i.BB_prepmode2reg)
    BB_sampPT2reg                            0x00000c99   Thumb Code   126  hal_bb.o(i.BB_sampPT2reg)
    BB_waitISR                               0x00000d19   Thumb Code    70  hal_bb.o(i.BB_waitISR)
    BSP_ADC_Init                             0x00000d85   Thumb Code   168  bsp_adc.o(i.BSP_ADC_Init)
    BSP_ChipEn                               0x00000e39   Thumb Code    22  bsp_gpio.o(i.BSP_ChipEn)
    BSP_GPIO_Init                            0x00000e55   Thumb Code    74  bsp_gpio.o(i.BSP_GPIO_Init)
    BSP_SPI_Init                             0x00000ea9   Thumb Code   142  bsp_spi.o(i.BSP_SPI_Init)
    BSP_UART_Init                            0x00000f4d   Thumb Code   154  bsp_uart.o(i.BSP_UART_Init)
    Cnt_Delay_ms                             0x00000ffd   Thumb Code    32  hal_delay.o(i.Cnt_Delay_ms)
    Cnt_Delay_us                             0x00001025   Thumb Code    22  hal_delay.o(i.Cnt_Delay_us)
    CreateBBTask                             0x0000103d   Thumb Code    26  bb_task.o(i.CreateBBTask)
    CreatePrintfTask                         0x00001069   Thumb Code    24  printf_task.o(i.CreatePrintfTask)
    DMA_Channel_Configure                    0x00001095   Thumb Code   280  dma.o(i.DMA_Channel_Configure)
    DMA_Channel_Enable                       0x000011ad   Thumb Code    40  dma.o(i.DMA_Channel_Enable)
    DMA_Channel_Irq_Disable                  0x000011dd   Thumb Code    34  dma.o(i.DMA_Channel_Irq_Disable)
    DMA_Clear_All_Irq                        0x00001201   Thumb Code    32  dma.o(i.DMA_Clear_All_Irq)
    DMA_Clear_Irq                            0x00001229   Thumb Code   150  dma.o(i.DMA_Clear_Irq)
    DMA_Config_Init                          0x000012c9   Thumb Code   102  hal_dma.o(i.DMA_Config_Init)
    DMA_Disable                              0x00001339   Thumb Code    14  dma.o(i.DMA_Disable)
    DMA_Enable                               0x00001351   Thumb Code     8  dma.o(i.DMA_Enable)
    DMA_IRQHandler                           0x0000135d   Thumb Code   288  hal_ospi.o(i.DMA_IRQHandler)
    DMA_Init                                 0x0000148d   Thumb Code    62  dma.o(i.DMA_Init)
    DMA_Mask_Irq                             0x000014cd   Thumb Code   200  dma.o(i.DMA_Mask_Irq)
    DMA_Num2Ch                               0x0000159d   Thumb Code    76  dma.o(i.DMA_Num2Ch)
    Default_Param_Config                     0x000015f5   Thumb Code     2  paramconfig.o(i.Default_Param_Config)
    EFC_Get_ActualAddress                    0x000015f9   Thumb Code    72  efc.o(i.EFC_Get_ActualAddress)
    EFC_ReWrite                              0x00001649   Thumb Code   116  efc.o(i.EFC_ReWrite)
    EFC_WriteInside1Page                     0x000016c1   Thumb Code   292  efc.o(i.EFC_WriteInside1Page)
    FADC_SPI_WriteSingle                     0x00001801   Thumb Code    58  fadc.o(i.FADC_SPI_WriteSingle)
    FPU_Enable                               0x00001841   Thumb Code    98  system_sky32b750.o(i.FPU_Enable)
    Func01_Handle                            0x000018a9   Thumb Code    42  bb_algproc.o(i.Func01_Handle)
    GPIO_AE_Ctrl                             0x000018d9   Thumb Code   196  gpio.o(i.GPIO_AE_Ctrl)
    GPIO_PullUp                              0x000019a5   Thumb Code   130  gpio.o(i.GPIO_PullUp)
    GPIO_SetMode                             0x00001a31   Thumb Code    20  gpio.o(i.GPIO_SetMode)
    HAL_MPU_Init                             0x00001a45   Thumb Code   914  hal_mpu.o(i.HAL_MPU_Init)
    HAL_SYS_CLK_Init                         0x00001df9   Thumb Code    18  hal_sysclk.o(i.HAL_SYS_CLK_Init)
    Hal_RF_WaveConfig                        0x00001e0b   Thumb Code    66  hal_rf.o(i.Hal_RF_WaveConfig)
    Hal_RF_WaveGen                           0x00001e4d   Thumb Code   272  hal_rf.o(i.Hal_RF_WaveGen)
    NMI_Handler                              0x00001f61   Thumb Code    68  system_sky32b750.o(i.NMI_Handler)
    OSPI_Clear_Irq                           0x00001ff5   Thumb Code     4  ospi.o(i.OSPI_Clear_Irq)
    OSPI_DMA_Trans64_IRQ_16kB                0x00001ff9   Thumb Code   336  hal_ospi.o(i.OSPI_DMA_Trans64_IRQ_16kB)
    OSPI_Init                                0x00002159   Thumb Code   130  ospi.o(i.OSPI_Init)
    OSPI_Irq_IsActive                        0x000021db   Thumb Code    16  ospi.o(i.OSPI_Irq_IsActive)
    OSPI_MasterInit                          0x000021ed   Thumb Code   530  hal_ospi.o(i.OSPI_MasterInit)
    PLL_System_Clock_Update                  0x00002415   Thumb Code   164  system_sky32b750.o(i.PLL_System_Clock_Update)
    ParamConfigInit                          0x000024d1   Thumb Code    24  paramconfig.o(i.ParamConfigInit)
    Peripheral_Reset                         0x000024ed   Thumb Code    24  system_sky32b750.o(i.Peripheral_Reset)
    PinMux_Set                               0x00002505   Thumb Code   320  pinmux.o(i.PinMux_Set)
    Printf_Param                             0x0000264d   Thumb Code   188  paramconfig.o(i.Printf_Param)
    Printf_Task                              0x00002809   Thumb Code    32  printf_task.o(i.Printf_Task)
    ProtocolSendPack                         0x00002831   Thumb Code   462  usart_protocol.o(i.ProtocolSendPack)
    RF_CfgInit                               0x0000360d   Thumb Code  1210  rf_config.o(i.RF_CfgInit)
    RF_Clock40M_En                           0x00003acd   Thumb Code    18  hal_rf.o(i.RF_Clock40M_En)
    RF_Freq_Start_Calc                       0x00003ae1   Thumb Code   520  hal_rf.o(i.RF_Freq_Start_Calc)
    RF_ReadRegSPI                            0x00003cf5   Thumb Code    82  hal_rf.o(i.RF_ReadRegSPI)
    RF_ReadWaveSPI_C                         0x00003d59   Thumb Code    82  hal_rf.o(i.RF_ReadWaveSPI_C)
    RF_Reg_Reset                             0x00003db9   Thumb Code   118  rf_config.o(i.RF_Reg_Reset)
    RF_Reg_Set                               0x00003e31   Thumb Code   290  rf_config.o(i.RF_Reg_Set)
    RF_SPI_CS                                0x00003f5d   Thumb Code    46  bsp_spi.o(i.RF_SPI_CS)
    RF_WaveSet                               0x00004185   Thumb Code   124  hal_rf.o(i.RF_WaveSet)
    RF_WriteCmdSPI                           0x00004201   Thumb Code    46  hal_rf.o(i.RF_WriteCmdSPI)
    RF_WriteRegSPI                           0x00004239   Thumb Code    98  hal_rf.o(i.RF_WriteRegSPI)
    RF_WriteWaveSPI_C                        0x000042d9   Thumb Code   150  hal_rf.o(i.RF_WriteWaveSPI_C)
    RF_waveStart                             0x000043b5   Thumb Code    10  hal_rf.o(i.RF_waveStart)
    RF_waveStop                              0x000043bf   Thumb Code    10  hal_rf.o(i.RF_waveStop)
    Radar_Config_Init                        0x000043c9   Thumb Code   738  radar_config.o(i.Radar_Config_Init)
    Read_Param_From_Flash                    0x000046d9   Thumb Code   520  paramconfig.o(i.Read_Param_From_Flash)
    RecProtocol_Loop                         0x000048e5   Thumb Code    42  usart_protocol.o(i.RecProtocol_Loop)
    SYS_CLK_PLL_Init                         0x00004915   Thumb Code    76  hal_sysclk.o(i.SYS_CLK_PLL_Init)
    Set_CoreLDO_Voltage                      0x00004969   Thumb Code    20  system_sky32b750.o(i.Set_CoreLDO_Voltage)
    Set_Flash_WS                             0x00004981   Thumb Code    22  system_sky32b750.o(i.Set_Flash_WS)
    Set_PLL                                  0x00004999   Thumb Code    72  system_sky32b750.o(i.Set_PLL)
    Set_SysClk_Div                           0x000049e9   Thumb Code    24  system_sky32b750.o(i.Set_SysClk_Div)
    SysTick_Handler                          0x00004a01   Thumb Code    26  irq_handler.o(i.SysTick_Handler)
    SysTick_Init                             0x00004a21   Thumb Code    48  hal_timer.o(i.SysTick_Init)
    Sys_Init                                 0x00004a55   Thumb Code   214  main.o(i.Sys_Init)
    SystemInit                               0x00004b51   Thumb Code    50  system_sky32b750.o(i.SystemInit)
    TMRB0_IRQHandler                         0x00004b89   Thumb Code    22  irq_handler.o(i.TMRB0_IRQHandler)
    TMRB0_Init                               0x00004ba9   Thumb Code    84  hal_timer.o(i.TMRB0_Init)
    TMRB_Reset                               0x00004c05   Thumb Code    10  timerb.o(i.TMRB_Reset)
    TMRB_mTimeout                            0x00004c11   Thumb Code   450  timerb.o(i.TMRB_mTimeout)
    UART_Transmit_Bytes                      0x00004ddd   Thumb Code    20  bsp_uart.o(i.UART_Transmit_Bytes)
    USCI4_IRQHandler                         0x00004df1   Thumb Code   148  bsp_uart.o(i.USCI4_IRQHandler)
    USCI_Clear_ESR                           0x00004eb9   Thumb Code     8  usci.o(i.USCI_Clear_ESR)
    USCI_Clear_ISR                           0x00004ec1   Thumb Code     8  usci.o(i.USCI_Clear_ISR)
    USCI_SPI_Init                            0x00004ec9   Thumb Code   138  usci.o(i.USCI_SPI_Init)
    USCI_SPI_TRx_Ext                         0x00004f55   Thumb Code   138  usci.o(i.USCI_SPI_TRx_Ext)
    USCI_SPI_Transmit_Ext                    0x00004fe5   Thumb Code   142  usci.o(i.USCI_SPI_Transmit_Ext)
    USCI_UART_Init                           0x00005079   Thumb Code   150  usci.o(i.USCI_UART_Init)
    USCI_UART_Transmit                       0x00005115   Thumb Code    88  usci.o(i.USCI_UART_Transmit)
    WDT_Disable                              0x0000516d   Thumb Code    36  wdt.o(i.WDT_Disable)
    WDT_Enable                               0x000051a1   Thumb Code    36  wdt.o(i.WDT_Enable)
    WDT_RstNow                               0x000051d5   Thumb Code    22  hal_wdt.o(i.WDT_RstNow)
    Word2Byte                                0x000051f1   Thumb Code    16  usart_protocol.o(i.Word2Byte)
    __0printf$8                              0x00005201   Thumb Code    22  printf8.o(i.__0printf$8)
    __1printf$8                              0x00005201   Thumb Code     0  printf8.o(i.__0printf$8)
    __2printf                                0x00005201   Thumb Code     0  printf8.o(i.__0printf$8)
    __scatterload_copy                       0x000052c5   Thumb Code    14  handlers.o(i.__scatterload_copy)
    __scatterload_null                       0x000052d3   Thumb Code     2  handlers.o(i.__scatterload_null)
    __scatterload_zeroinit                   0x000052d5   Thumb Code    14  handlers.o(i.__scatterload_zeroinit)
    algStruct_Init                           0x0000573d   Thumb Code  1752  radar_config.o(i.algStruct_Init)
    dataprep_RegSet                          0x00005e41   Thumb Code   182  bb_config.o(i.dataprep_RegSet)
    fft1dCalc                                0x00005f01   Thumb Code   750  bb_algproc.o(i.fft1dCalc)
    fft1dMeanDivCalc                         0x00006255   Thumb Code    68  hal_bb.o(i.fft1dMeanDivCalc)
    fftPTcalc                                0x00006299   Thumb Code    94  hal_bb.o(i.fftPTcalc)
    fputc                                    0x000062f7   Thumb Code    14  bsp_uart.o(i.fputc)
    getPointCloud                            0x00006305   Thumb Code    42  bb_algproc.o(i.getPointCloud)
    log2Data                                 0x0000633d   Thumb Code    96  hal_bb.o(i.log2Data)
    main                                     0x0000639d   Thumb Code    38  main.o(i.main)
    mod                                      0x000063d9   Thumb Code    12  hal_rf.o(i.mod)
    pvPortMalloc                             0x00006d35   Thumb Code   188  heap_4.o(i.pvPortMalloc)
    pvTaskIncrementMutexHeldCount            0x00006e05   Thumb Code    26  tasks.o(i.pvTaskIncrementMutexHeldCount)
    pxPortInitialiseStack                    0x00006e25   Thumb Code    38  port.o(i.pxPortInitialiseStack)
    sampDataHandle                           0x00006e51   Thumb Code   326  bb_algproc.o(i.sampDataHandle)
    sendchar                                 0x00006fdd   Thumb Code    24  bsp_uart.o(i.sendchar)
    start_task                               0x00006ff9   Thumb Code    48  main.o(i.start_task)
    test_dma_ch1_callback                    0x00007031   Thumb Code   140  hal_ospi.o(i.test_dma_ch1_callback)
    test_dma_ch2_callback                    0x000070c5   Thumb Code   146  hal_ospi.o(i.test_dma_ch2_callback)
    ulTaskNotifyTake                         0x00007161   Thumb Code   108  tasks.o(i.ulTaskNotifyTake)
    userTimerB0CallBackHand                  0x000071d5   Thumb Code    72  main.o(i.userTimerB0CallBackHand)
    uxListRemove                             0x0000722d   Thumb Code    40  list.o(i.uxListRemove)
    vApplicationIdleHook                     0x00007255   Thumb Code     8  main.o(i.vApplicationIdleHook)
    vListInitialise                          0x00007261   Thumb Code    26  list.o(i.vListInitialise)
    vListInitialiseItem                      0x0000727b   Thumb Code     6  list.o(i.vListInitialiseItem)
    vListInsert                              0x00007281   Thumb Code    52  list.o(i.vListInsert)
    vListInsertEnd                           0x000072b5   Thumb Code    24  list.o(i.vListInsertEnd)
    vPortEnterCritical                       0x000072cd   Thumb Code    34  port.o(i.vPortEnterCritical)
    vPortExitCritical                        0x000072f5   Thumb Code    28  port.o(i.vPortExitCritical)
    vPortFree                                0x00007315   Thumb Code    64  heap_4.o(i.vPortFree)
    vPortSetupTimerInterrupt                 0x0000735d   Thumb Code    26  port.o(i.vPortSetupTimerInterrupt)
    vQueueAddToRegistry                      0x0000737d   Thumb Code    38  queue.o(i.vQueueAddToRegistry)
    vQueueWaitForMessageRestricted           0x000073a9   Thumb Code    74  queue.o(i.vQueueWaitForMessageRestricted)
    vTaskDelay                               0x000073f5   Thumb Code    46  tasks.o(i.vTaskDelay)
    vTaskDelete                              0x00007429   Thumb Code   166  tasks.o(i.vTaskDelete)
    vTaskMissedYield                         0x000074f5   Thumb Code     8  tasks.o(i.vTaskMissedYield)
    vTaskNotifyGiveFromISR                   0x00007501   Thumb Code   158  tasks.o(i.vTaskNotifyGiveFromISR)
    vTaskPlaceOnEventList                    0x000075b9   Thumb Code    28  tasks.o(i.vTaskPlaceOnEventList)
    vTaskPlaceOnEventListRestricted          0x000075d9   Thumb Code    36  tasks.o(i.vTaskPlaceOnEventListRestricted)
    vTaskPriorityInherit                     0x00007601   Thumb Code   164  tasks.o(i.vTaskPriorityInherit)
    vTaskSetTimeOutState                     0x000076b1   Thumb Code    14  tasks.o(i.vTaskSetTimeOutState)
    vTaskStartScheduler                      0x000076c9   Thumb Code    92  tasks.o(i.vTaskStartScheduler)
    vTaskSuspendAll                          0x00007745   Thumb Code    12  tasks.o(i.vTaskSuspendAll)
    vTaskSwitchContext                       0x00007755   Thumb Code   128  tasks.o(i.vTaskSwitchContext)
    xPortStartScheduler                      0x000077f5   Thumb Code    58  port.o(i.xPortStartScheduler)
    xPortSysTickHandler                      0x0000783d   Thumb Code    50  port.o(i.xPortSysTickHandler)
    xQueueGenericCreate                      0x00007875   Thumb Code    56  queue.o(i.xQueueGenericCreate)
    xQueueGenericReceive                     0x000078ad   Thumb Code   342  queue.o(i.xQueueGenericReceive)
    xQueueGenericReset                       0x00007a09   Thumb Code   122  queue.o(i.xQueueGenericReset)
    xQueueGenericSend                        0x00007a89   Thumb Code   308  queue.o(i.xQueueGenericSend)
    xQueueGenericSendFromISR                 0x00007bc1   Thumb Code   160  queue.o(i.xQueueGenericSendFromISR)
    xTaskCheckForTimeOut                     0x00007c61   Thumb Code    84  tasks.o(i.xTaskCheckForTimeOut)
    xTaskCreate                              0x00007cbd   Thumb Code    96  tasks.o(i.xTaskCreate)
    xTaskGetSchedulerState                   0x00007d1d   Thumb Code    24  tasks.o(i.xTaskGetSchedulerState)
    xTaskGetTickCount                        0x00007d3d   Thumb Code     6  tasks.o(i.xTaskGetTickCount)
    xTaskIncrementTick                       0x00007d49   Thumb Code   238  tasks.o(i.xTaskIncrementTick)
    xTaskPriorityDisinherit                  0x00007e65   Thumb Code   122  tasks.o(i.xTaskPriorityDisinherit)
    xTaskRemoveFromEventList                 0x00007ee9   Thumb Code   104  tasks.o(i.xTaskRemoveFromEventList)
    xTaskResumeAll                           0x00007f69   Thumb Code   196  tasks.o(i.xTaskResumeAll)
    xTimerCreateTimerTask                    0x00008051   Thumb Code    42  timers.o(i.xTimerCreateTimerTask)
    xTimerGenericCommand                     0x00008091   Thumb Code   104  timers.o(i.xTimerGenericCommand)
    winRange_Pre                             0x000080fc   Data        1024  radar_config.o(.constdata)
    winVelPre                                0x000084fc   Data         512  radar_config.o(.constdata)
    sincBuf_Pre                              0x000086fc   Data         512  radar_config.o(.constdata)
    steeringVec_Pre                          0x000088fc   Data        2048  radar_config.o(.constdata)
    calib_ap                                 0x000090fc   Data          64  radar_config.o(.constdata)
    nco_fcw                                  0x0000913c   Data          64  radar_config.o(.constdata)
    Region$$Table$$Base                      0x000091cc   Number         0  anon$$obj.o(Region$$Table)
    Region$$Table$$Limit                     0x000091ec   Number         0  anon$$obj.o(Region$$Table)
    sys_clk                                  0x20000000   Data           4  system_sky32b750.o(.data)
    hclk                                     0x20000004   Data           4  system_sky32b750.o(.data)
    pclk                                     0x20000008   Data           4  system_sky32b750.o(.data)
    pll_clk                                  0x2000000c   Data           4  system_sky32b750.o(.data)
    lrc_clk                                  0x20000010   Data           4  system_sky32b750.o(.data)
    hrc_clk                                  0x20000014   Data           4  system_sky32b750.o(.data)
    can_clk                                  0x20000018   Data           4  system_sky32b750.o(.data)
    ms_step                                  0x2000001c   Data           4  system_sky32b750.o(.data)
    WKU_FLAG_sta0                            0x20000020   Data           4  system_sky32b750.o(.data)
    WKU_FLAG_sta1                            0x20000024   Data           4  system_sky32b750.o(.data)
    WKU_FLAG_sta2                            0x20000028   Data           4  system_sky32b750.o(.data)
    flash_buf_8                              0x2000002c   Data           4  efc.o(.data)
    flash_buf_32                             0x20000030   Data           4  efc.o(.data)
    pxCurrentTCB                             0x20000034   Data           4  tasks.o(.data)
    __stdout                                 0x200000a8   Data           4  bsp_uart.o(.data)
    __stdin                                  0x200000ac   Data           4  bsp_uart.o(.data)
    stHRC                                    0x200000b0   Data           3  hal_sysclk.o(.data)
    stPLL                                    0x200000b4   Data           8  hal_sysclk.o(.data)
    irq_dma_flag1                            0x200000bc   Data           1  hal_ospi.o(.data)
    irq_dma_flag2                            0x200000bd   Data           1  hal_ospi.o(.data)
    bb_regb_str                              0x200000c0   Data           4  bb_config.o(.data)
    prepCfg1_val1                            0x200000c8   Data           8  bb_config.o(.data)
    prepCfg1_val2                            0x200000d0   Data           8  bb_config.o(.data)
    BB_isrSet                                0x200000d8   Data           4  bb_config.o(.data)
    BB_isrRead                               0x200000dc   Data           4  bb_config.o(.data)
    BB_sampOverFlag                          0x200000e0   Data           1  bb_config.o(.data)
    BB_firstChirp                            0x200000e1   Data           1  bb_config.o(.data)
    rampCnt                                  0x200000e4   Data           4  bb_config.o(.data)
    radarUserCfg                             0x200000e8   Data          56  radar_config.o(.data)
    head                                     0x20000120   Data           8  bb_algproc.o(.data)
    BB_AlgProcFinished                       0x20000128   Data           1  bb_algproc.o(.data)
    frameCnt                                 0x2000012c   Data           4  bb_algproc.o(.data)
    meanBufIdx                               0x20000130   Data           1  bb_algproc.o(.data)
    BBTask_Handler                           0x20000134   Data           4  bb_task.o(.data)
    xSemaphoreBB                             0x20000138   Data           4  bb_task.o(.data)
    PrintfTask_Handler                       0x2000013c   Data           4  printf_task.o(.data)
    StartTask_Handler                        0x20000144   Data           4  main.o(.data)
    waveStartEn                              0x20000148   Data           1  main.o(.data)
    bbTimCnt                                 0x2000014c   Data           4  main.o(.data)
    CPU_RunTime                              0x20000150   Data           4  main.o(.data)
    bb_RunTime                               0x20000154   Data           4  main.o(.data)
    BB_timeoutCnt                            0x20000158   Data           4  irq_handler.o(.data)
    SysTick_Counter                          0x2000015c   Data           4  irq_handler.o(.data)
    dma_irq_sta                              0x20000160   Data          24  dma.o(.bss)
    xQueueRegistry                           0x20000178   Data          64  queue.o(.bss)
    SPI0                                     0x200002a8   Data          36  bsp_spi.o(.bss)
    SPI1                                     0x200002cc   Data          36  bsp_spi.o(.bss)
    strUart                                  0x200002f0   Data          72  bsp_uart.o(.bss)
    UART0                                    0x20000338   Data          36  bsp_uart.o(.bss)
    SPI_write_data                           0x2000035c   Data          10  hal_rf.o(.bss)
    SPI_read_data                            0x20000366   Data          10  hal_rf.o(.bss)
    dma_callback                             0x20000370   Data          32  hal_ospi.o(.bss)
    rf_reg                                   0x20000390   Data         382  rf_config.o(.bss)
    bb_prep                                  0x20000510   Data          40  bb_config.o(.bss)
    cfarCfg0_stR                             0x20000538   Data          16  bb_config.o(.bss)
    cfarCfg0_stV                             0x20000548   Data          16  bb_config.o(.bss)
    fft2d_zp                                 0x20000558   Data         320  bb_config.o(.bss)
    algCfg                                   0x20000698   Data         500  radar_config.o(.bss)
    udata                                    0x20000890   Data          32  usart_protocol.o(.bss)
    stFlashParam                             0x200008b0   Data          52  paramconfig.o(.bss)
    __initial_sp                             0x200018e8   Data           0  startup_sky32b750.o(STACK)



==============================================================================

Memory Map of the image

  Image Entry point : 0x000000e1

  Load Region LR_IROM1 (Base: 0x00000000, Size: 0x0000934c, Max: 0x00040000, ABSOLUTE, COMPRESSED[0x00009248])

    Execution Region ER_IROM1 (Exec base: 0x00000000, Load base: 0x00000000, Size: 0x000091ec, Max: 0x00040000, ABSOLUTE)

    Exec Addr    Load Addr    Size         Type   Attr      Idx    E Section Name        Object

    0x00000000   0x00000000   0x000000e0   Data   RO            3    RESET               startup_sky32b750.o
    0x000000e0   0x000000e0   0x00000000   Code   RO         3908  * .ARM.Collect$$$$00000000  mc_w.l(entry.o)
    0x000000e0   0x000000e0   0x00000004   Code   RO         4188    .ARM.Collect$$$$00000001  mc_w.l(entry2.o)
    0x000000e4   0x000000e4   0x00000004   Code   RO         4191    .ARM.Collect$$$$00000004  mc_w.l(entry5.o)
    0x000000e8   0x000000e8   0x00000000   Code   RO         4193    .ARM.Collect$$$$00000008  mc_w.l(entry7b.o)
    0x000000e8   0x000000e8   0x00000000   Code   RO         4195    .ARM.Collect$$$$0000000A  mc_w.l(entry8b.o)
    0x000000e8   0x000000e8   0x00000008   Code   RO         4196    .ARM.Collect$$$$0000000B  mc_w.l(entry9a.o)
    0x000000f0   0x000000f0   0x00000004   Code   RO         4203    .ARM.Collect$$$$0000000E  mc_w.l(entry12b.o)
    0x000000f4   0x000000f4   0x00000000   Code   RO         4198    .ARM.Collect$$$$0000000F  mc_w.l(entry10a.o)
    0x000000f4   0x000000f4   0x00000000   Code   RO         4200    .ARM.Collect$$$$00000011  mc_w.l(entry11a.o)
    0x000000f4   0x000000f4   0x00000004   Code   RO         4189    .ARM.Collect$$$$00002712  mc_w.l(entry2.o)
    0x000000f8   0x000000f8   0x000000ba   Code   RO         2231    .emb_text           port.o
    0x000001b2   0x000001b2   0x00000002   PAD
    0x000001b4   0x000001b4   0x00000024   Code   RO            4    .text               startup_sky32b750.o
    0x000001d8   0x000001d8   0x00000062   Code   RO         3911    .text               mc_w.l(uldiv.o)
    0x0000023a   0x0000023a   0x0000001e   Code   RO         3913    .text               mc_w.l(llshl.o)
    0x00000258   0x00000258   0x00000024   Code   RO         3915    .text               mc_w.l(memcpya.o)
    0x0000027c   0x0000027c   0x00000024   Code   RO         3917    .text               mc_w.l(memseta.o)
    0x000002a0   0x000002a0   0x0000001a   Code   RO         3921    .text               mc_w.l(memcmp.o)
    0x000002ba   0x000002ba   0x00000020   Code   RO         4206    .text               mc_w.l(llushr.o)
    0x000002da   0x000002da   0x00000002   PAD
    0x000002dc   0x000002dc   0x00000024   Code   RO         4219    .text               mc_w.l(init.o)
    0x00000300   0x00000300   0x00000056   Code   RO         4233    .text               mc_w.l(__dczerorl2.o)
    0x00000356   0x00000356   0x00000002   PAD
    0x00000358   0x00000358   0x00000014   Code   RO         3694    i.App_Init          main.o
    0x0000036c   0x0000036c   0x0000011c   Code   RO         3762    i.AsciiToDec        usart_protocol.o
    0x00000488   0x00000488   0x00000038   Code   RO         3587    i.BB_AlgProc_Loop   bb_task.o
    0x000004c0   0x000004c0   0x000000a8   Code   RO         2619    i.BB_CFAR_CFG0      hal_bb.o
    0x00000568   0x00000568   0x000000d4   Code   RO         3327    i.BB_CFAR_Vel_Init  bb_config.o
    0x0000063c   0x0000063c   0x00000250   Code   RO         3328    i.BB_FFT2D_ZP_Init  bb_config.o
    0x0000088c   0x0000088c   0x0000008c   Code   RO         2624    i.BB_FFT_ZP_Clear   hal_bb.o
    0x00000918   0x00000918   0x00000110   Code   RO         3329    i.BB_IRQHandler     bb_config.o
    0x00000a28   0x00000a28   0x0000019e   Code   RO         2626    i.BB_PrepConfig     hal_bb.o
    0x00000bc6   0x00000bc6   0x00000002   PAD
    0x00000bc8   0x00000bc8   0x00000024   Code   RO         3588    i.BB_Task           bb_task.o
    0x00000bec   0x00000bec   0x00000030   Code   RO         3589    i.BB_Task_Trigger   bb_task.o
    0x00000c1c   0x00000c1c   0x00000018   Code   RO         2627    i.BB_WBUF_W16       hal_bb.o
    0x00000c34   0x00000c34   0x00000018   Code   RO         2628    i.BB_WBUF_W32       hal_bb.o
    0x00000c4c   0x00000c4c   0x00000028   Code   RO         2630    i.BB_prepBit2reg    hal_bb.o
    0x00000c74   0x00000c74   0x00000024   Code   RO         2631    i.BB_prepmode2reg   hal_bb.o
    0x00000c98   0x00000c98   0x0000007e   Code   RO         2632    i.BB_sampPT2reg     hal_bb.o
    0x00000d16   0x00000d16   0x00000002   PAD
    0x00000d18   0x00000d18   0x0000006c   Code   RO         2635    i.BB_waitISR        hal_bb.o
    0x00000d84   0x00000d84   0x000000b4   Code   RO         2314    i.BSP_ADC_Init      bsp_adc.o
    0x00000e38   0x00000e38   0x0000001c   Code   RO         2345    i.BSP_ChipEn        bsp_gpio.o
    0x00000e54   0x00000e54   0x00000054   Code   RO         2346    i.BSP_GPIO_Init     bsp_gpio.o
    0x00000ea8   0x00000ea8   0x000000a4   Code   RO         2383    i.BSP_SPI_Init      bsp_spi.o
    0x00000f4c   0x00000f4c   0x000000b0   Code   RO         2513    i.BSP_UART_Init     bsp_uart.o
    0x00000ffc   0x00000ffc   0x00000028   Code   RO         2914    i.Cnt_Delay_ms      hal_delay.o
    0x00001024   0x00001024   0x00000016   Code   RO         2915    i.Cnt_Delay_us      hal_delay.o
    0x0000103a   0x0000103a   0x00000002   PAD
    0x0000103c   0x0000103c   0x0000002c   Code   RO         3590    i.CreateBBTask      bb_task.o
    0x00001068   0x00001068   0x0000002c   Code   RO         3643    i.CreatePrintfTask  printf_task.o
    0x00001094   0x00001094   0x00000118   Code   RO          547    i.DMA_Channel_Configure  dma.o
    0x000011ac   0x000011ac   0x00000030   Code   RO          549    i.DMA_Channel_Enable  dma.o
    0x000011dc   0x000011dc   0x00000022   Code   RO          550    i.DMA_Channel_Irq_Disable  dma.o
    0x000011fe   0x000011fe   0x00000002   PAD
    0x00001200   0x00001200   0x00000028   Code   RO          553    i.DMA_Clear_All_Irq  dma.o
    0x00001228   0x00001228   0x000000a0   Code   RO          554    i.DMA_Clear_Irq     dma.o
    0x000012c8   0x000012c8   0x00000070   Code   RO         2944    i.DMA_Config_Init   hal_dma.o
    0x00001338   0x00001338   0x00000018   Code   RO          555    i.DMA_Disable       dma.o
    0x00001350   0x00001350   0x0000000c   Code   RO          556    i.DMA_Enable        dma.o
    0x0000135c   0x0000135c   0x00000130   Code   RO         3214    i.DMA_IRQHandler    hal_ospi.o
    0x0000148c   0x0000148c   0x0000003e   Code   RO          558    i.DMA_Init          dma.o
    0x000014ca   0x000014ca   0x00000002   PAD
    0x000014cc   0x000014cc   0x000000d0   Code   RO          559    i.DMA_Mask_Irq      dma.o
    0x0000159c   0x0000159c   0x00000058   Code   RO          560    i.DMA_Num2Ch        dma.o
    0x000015f4   0x000015f4   0x00000002   Code   RO         3819    i.Default_Param_Config  paramconfig.o
    0x000015f6   0x000015f6   0x00000002   PAD
    0x000015f8   0x000015f8   0x00000050   Code   RO          795    i.EFC_Get_ActualAddress  efc.o
    0x00001648   0x00001648   0x00000078   Code   RO          796    i.EFC_ReWrite       efc.o
    0x000016c0   0x000016c0   0x00000140   Code   RO          804    i.EFC_WriteInside1Page  efc.o
    0x00001800   0x00001800   0x00000040   Code   RO          716    i.FADC_SPI_WriteSingle  fadc.o
    0x00001840   0x00001840   0x00000068   Code   RO           19    i.FPU_Enable        system_sky32b750.o
    0x000018a8   0x000018a8   0x00000030   Code   RO         3420    i.Func01_Handle     bb_algproc.o
    0x000018d8   0x000018d8   0x000000cc   Code   RO          898    i.GPIO_AE_Ctrl      gpio.o
    0x000019a4   0x000019a4   0x0000008c   Code   RO          904    i.GPIO_PullUp       gpio.o
    0x00001a30   0x00001a30   0x00000014   Code   RO          906    i.GPIO_SetMode      gpio.o
    0x00001a44   0x00001a44   0x000003b4   Code   RO         3016    i.HAL_MPU_Init      hal_mpu.o
    0x00001df8   0x00001df8   0x00000012   Code   RO         3092    i.HAL_SYS_CLK_Init  hal_sysclk.o
    0x00001e0a   0x00001e0a   0x00000042   Code   RO         2781    i.Hal_RF_WaveConfig  hal_rf.o
    0x00001e4c   0x00001e4c   0x00000114   Code   RO         2782    i.Hal_RF_WaveGen    hal_rf.o
    0x00001f60   0x00001f60   0x00000054   Code   RO           24    i.NMI_Handler       system_sky32b750.o
    0x00001fb4   0x00001fb4   0x00000040   Code   RO         1081    i.NVIC_EncodePriority  timerb.o
    0x00001ff4   0x00001ff4   0x00000004   Code   RO         1035    i.OSPI_Clear_Irq    ospi.o
    0x00001ff8   0x00001ff8   0x00000160   Code   RO         3216    i.OSPI_DMA_Trans64_IRQ_16kB  hal_ospi.o
    0x00002158   0x00002158   0x00000082   Code   RO         1036    i.OSPI_Init         ospi.o
    0x000021da   0x000021da   0x00000010   Code   RO         1037    i.OSPI_Irq_IsActive  ospi.o
    0x000021ea   0x000021ea   0x00000002   PAD
    0x000021ec   0x000021ec   0x00000228   Code   RO         3218    i.OSPI_MasterInit   hal_ospi.o
    0x00002414   0x00002414   0x000000bc   Code   RO           25    i.PLL_System_Clock_Update  system_sky32b750.o
    0x000024d0   0x000024d0   0x0000001c   Code   RO         3820    i.ParamConfigInit   paramconfig.o
    0x000024ec   0x000024ec   0x00000018   Code   RO           26    i.Peripheral_Reset  system_sky32b750.o
    0x00002504   0x00002504   0x00000148   Code   RO          391    i.PinMux_Set        pinmux.o
    0x0000264c   0x0000264c   0x000001bc   Code   RO         3821    i.Printf_Param      paramconfig.o
    0x00002808   0x00002808   0x00000028   Code   RO         3645    i.Printf_Task       printf_task.o
    0x00002830   0x00002830   0x000001d8   Code   RO         3764    i.ProtocolSendPack  usart_protocol.o
    0x00002a08   0x00002a08   0x00000c04   Code   RO         3765    i.Protocol_Analysis_Handle  usart_protocol.o
    0x0000360c   0x0000360c   0x000004c0   Code   RO         3278    i.RF_CfgInit        rf_config.o
    0x00003acc   0x00003acc   0x00000012   Code   RO         2783    i.RF_Clock40M_En    hal_rf.o
    0x00003ade   0x00003ade   0x00000002   PAD
    0x00003ae0   0x00003ae0   0x00000214   Code   RO         2784    i.RF_Freq_Start_Calc  hal_rf.o
    0x00003cf4   0x00003cf4   0x00000064   Code   RO         2785    i.RF_ReadRegSPI     hal_rf.o
    0x00003d58   0x00003d58   0x00000060   Code   RO         2787    i.RF_ReadWaveSPI_C  hal_rf.o
    0x00003db8   0x00003db8   0x00000076   Code   RO         3280    i.RF_Reg_Reset      rf_config.o
    0x00003e2e   0x00003e2e   0x00000002   PAD
    0x00003e30   0x00003e30   0x0000012c   Code   RO         3281    i.RF_Reg_Set        rf_config.o
    0x00003f5c   0x00003f5c   0x00000034   Code   RO         2384    i.RF_SPI_CS         bsp_spi.o
    0x00003f90   0x00003f90   0x000001f4   Code   RO         2788    i.RF_Sweep_step_Calculate  hal_rf.o
    0x00004184   0x00004184   0x0000007c   Code   RO         2789    i.RF_WaveSet        hal_rf.o
    0x00004200   0x00004200   0x00000038   Code   RO         2790    i.RF_WriteCmdSPI    hal_rf.o
    0x00004238   0x00004238   0x000000a0   Code   RO         2792    i.RF_WriteRegSPI    hal_rf.o
    0x000042d8   0x000042d8   0x000000dc   Code   RO         2795    i.RF_WriteWaveSPI_C  hal_rf.o
    0x000043b4   0x000043b4   0x0000000a   Code   RO         2796    i.RF_waveStart      hal_rf.o
    0x000043be   0x000043be   0x0000000a   Code   RO         2797    i.RF_waveStop       hal_rf.o
    0x000043c8   0x000043c8   0x00000310   Code   RO         3377    i.Radar_Config_Init  radar_config.o
    0x000046d8   0x000046d8   0x0000020c   Code   RO         3822    i.Read_Param_From_Flash  paramconfig.o
    0x000048e4   0x000048e4   0x00000030   Code   RO         3766    i.RecProtocol_Loop  usart_protocol.o
    0x00004914   0x00004914   0x00000054   Code   RO         3094    i.SYS_CLK_PLL_Init  hal_sysclk.o
    0x00004968   0x00004968   0x00000018   Code   RO           32    i.Set_CoreLDO_Voltage  system_sky32b750.o
    0x00004980   0x00004980   0x00000016   Code   RO           33    i.Set_Flash_WS      system_sky32b750.o
    0x00004996   0x00004996   0x00000002   PAD
    0x00004998   0x00004998   0x00000050   Code   RO           36    i.Set_PLL           system_sky32b750.o
    0x000049e8   0x000049e8   0x00000018   Code   RO           38    i.Set_SysClk_Div    system_sky32b750.o
    0x00004a00   0x00004a00   0x00000020   Code   RO         3875    i.SysTick_Handler   irq_handler.o
    0x00004a20   0x00004a20   0x00000034   Code   RO         3170    i.SysTick_Init      hal_timer.o
    0x00004a54   0x00004a54   0x000000fc   Code   RO         3695    i.Sys_Init          main.o
    0x00004b50   0x00004b50   0x00000038   Code   RO           39    i.SystemInit        system_sky32b750.o
    0x00004b88   0x00004b88   0x00000020   Code   RO         3876    i.TMRB0_IRQHandler  irq_handler.o
    0x00004ba8   0x00004ba8   0x0000005c   Code   RO         3171    i.TMRB0_Init        hal_timer.o
    0x00004c04   0x00004c04   0x0000000a   Code   RO         1084    i.TMRB_Reset        timerb.o
    0x00004c0e   0x00004c0e   0x00000002   PAD
    0x00004c10   0x00004c10   0x000001cc   Code   RO         1086    i.TMRB_mTimeout     timerb.o
    0x00004ddc   0x00004ddc   0x00000014   Code   RO         2514    i.UART_Transmit_Bytes  bsp_uart.o
    0x00004df0   0x00004df0   0x000000c8   Code   RO         2515    i.USCI4_IRQHandler  bsp_uart.o
    0x00004eb8   0x00004eb8   0x00000008   Code   RO          415    i.USCI_Clear_ESR    usci.o
    0x00004ec0   0x00004ec0   0x00000008   Code   RO          416    i.USCI_Clear_ISR    usci.o
    0x00004ec8   0x00004ec8   0x0000008a   Code   RO          419    i.USCI_SPI_Init     usci.o
    0x00004f52   0x00004f52   0x00000002   PAD
    0x00004f54   0x00004f54   0x00000090   Code   RO          424    i.USCI_SPI_TRx_Ext  usci.o
    0x00004fe4   0x00004fe4   0x00000094   Code   RO          426    i.USCI_SPI_Transmit_Ext  usci.o
    0x00005078   0x00005078   0x0000009c   Code   RO          431    i.USCI_UART_Init    usci.o
    0x00005114   0x00005114   0x00000058   Code   RO          433    i.USCI_UART_Transmit  usci.o
    0x0000516c   0x0000516c   0x00000034   Code   RO          667    i.WDT_Disable       wdt.o
    0x000051a0   0x000051a0   0x00000034   Code   RO          668    i.WDT_Enable        wdt.o
    0x000051d4   0x000051d4   0x0000001c   Code   RO         3136    i.WDT_RstNow        hal_wdt.o
    0x000051f0   0x000051f0   0x00000010   Code   RO         3767    i.Word2Byte         usart_protocol.o
    0x00005200   0x00005200   0x00000020   Code   RO         4134    i.__0printf$8       mc_w.l(printf8.o)
    0x00005220   0x00005220   0x00000022   Code   RO         1089    i.__NVIC_EnableIRQ  timerb.o
    0x00005242   0x00005242   0x00000022   Code   RO         3172    i.__NVIC_EnableIRQ  hal_timer.o
    0x00005264   0x00005264   0x00000010   Code   RO         1090    i.__NVIC_GetPriorityGrouping  timerb.o
    0x00005274   0x00005274   0x00000028   Code   RO         1091    i.__NVIC_SetPriority  timerb.o
    0x0000529c   0x0000529c   0x00000028   Code   RO         3173    i.__NVIC_SetPriority  hal_timer.o
    0x000052c4   0x000052c4   0x0000000e   Code   RO         4227    i.__scatterload_copy  mc_w.l(handlers.o)
    0x000052d2   0x000052d2   0x00000002   Code   RO         4228    i.__scatterload_null  mc_w.l(handlers.o)
    0x000052d4   0x000052d4   0x0000000e   Code   RO         4229    i.__scatterload_zeroinit  mc_w.l(handlers.o)
    0x000052e2   0x000052e2   0x00000002   PAD
    0x000052e4   0x000052e4   0x00000404   Code   RO         4141    i._printf_core      mc_w.l(printf8.o)
    0x000056e8   0x000056e8   0x00000024   Code   RO         4142    i._printf_post_padding  mc_w.l(printf8.o)
    0x0000570c   0x0000570c   0x0000002e   Code   RO         4143    i._printf_pre_padding  mc_w.l(printf8.o)
    0x0000573a   0x0000573a   0x00000002   PAD
    0x0000573c   0x0000573c   0x00000704   Code   RO         3378    i.algStruct_Init    radar_config.o
    0x00005e40   0x00005e40   0x000000c0   Code   RO         3330    i.dataprep_RegSet   bb_config.o
    0x00005f00   0x00005f00   0x00000354   Code   RO         3426    i.fft1dCalc         bb_algproc.o
    0x00006254   0x00006254   0x00000044   Code   RO         2637    i.fft1dMeanDivCalc  hal_bb.o
    0x00006298   0x00006298   0x0000005e   Code   RO         2638    i.fftPTcalc         hal_bb.o
    0x000062f6   0x000062f6   0x0000000e   Code   RO         2520    i.fputc             bsp_uart.o
    0x00006304   0x00006304   0x00000038   Code   RO         3434    i.getPointCloud     bb_algproc.o
    0x0000633c   0x0000633c   0x00000060   Code   RO         2640    i.log2Data          hal_bb.o
    0x0000639c   0x0000639c   0x0000003c   Code   RO         3696    i.main              main.o
    0x000063d8   0x000063d8   0x0000000c   Code   RO         2798    i.mod               hal_rf.o
    0x000063e4   0x000063e4   0x00000098   Code   RO         1646    i.prvAddCurrentTaskToDelayedList  tasks.o
    0x0000647c   0x0000647c   0x000000b8   Code   RO         1647    i.prvAddNewTaskToReadyList  tasks.o
    0x00006534   0x00006534   0x00000064   Code   RO         2028    i.prvCheckForValidListAndQueue  timers.o
    0x00006598   0x00006598   0x00000064   Code   RO         1648    i.prvCheckTasksWaitingTermination  tasks.o
    0x000065fc   0x000065fc   0x0000002a   Code   RO         1392    i.prvCopyDataFromQueue  queue.o
    0x00006626   0x00006626   0x0000007c   Code   RO         1393    i.prvCopyDataToQueue  queue.o
    0x000066a2   0x000066a2   0x00000012   Code   RO         1649    i.prvDeleteTCB      tasks.o
    0x000066b4   0x000066b4   0x00000028   Code   RO         2029    i.prvGetNextExpireTime  timers.o
    0x000066dc   0x000066dc   0x0000007c   Code   RO         2170    i.prvHeapInit       heap_4.o
    0x00006758   0x00006758   0x0000002c   Code   RO         1650    i.prvIdleTask       tasks.o
    0x00006784   0x00006784   0x0000002e   Code   RO         1395    i.prvInitialiseNewQueue  queue.o
    0x000067b2   0x000067b2   0x00000092   Code   RO         1651    i.prvInitialiseNewTask  tasks.o
    0x00006844   0x00006844   0x00000068   Code   RO         1652    i.prvInitialiseTaskLists  tasks.o
    0x000068ac   0x000068ac   0x00000068   Code   RO         2171    i.prvInsertBlockIntoFreeList  heap_4.o
    0x00006914   0x00006914   0x00000058   Code   RO         2031    i.prvInsertTimerInActiveList  timers.o
    0x0000696c   0x0000696c   0x0000001a   Code   RO         1396    i.prvIsQueueEmpty   queue.o
    0x00006986   0x00006986   0x0000001e   Code   RO         1397    i.prvIsQueueFull    queue.o
    0x000069a4   0x000069a4   0x00000052   Code   RO         1398    i.prvNotifyQueueSetContainer  queue.o
    0x000069f6   0x000069f6   0x00000002   PAD
    0x000069f8   0x000069f8   0x0000004c   Code   RO         2032    i.prvProcessExpiredTimer  timers.o
    0x00006a44   0x00006a44   0x000000d0   Code   RO         2033    i.prvProcessReceivedCommands  timers.o
    0x00006b14   0x00006b14   0x00000074   Code   RO         2034    i.prvProcessTimerOrBlockTask  timers.o
    0x00006b88   0x00006b88   0x00000034   Code   RO         1654    i.prvResetNextTaskUnblockTime  tasks.o
    0x00006bbc   0x00006bbc   0x0000002c   Code   RO         2035    i.prvSampleTimeNow  timers.o
    0x00006be8   0x00006be8   0x00000084   Code   RO         2036    i.prvSwitchTimerLists  timers.o
    0x00006c6c   0x00006c6c   0x0000001a   Code   RO         2232    i.prvTaskExitError  port.o
    0x00006c86   0x00006c86   0x0000001a   Code   RO         2037    i.prvTimerTask      timers.o
    0x00006ca0   0x00006ca0   0x00000092   Code   RO         1399    i.prvUnlockQueue    queue.o
    0x00006d32   0x00006d32   0x00000002   PAD
    0x00006d34   0x00006d34   0x000000d0   Code   RO         2172    i.pvPortMalloc      heap_4.o
    0x00006e04   0x00006e04   0x00000020   Code   RO         1658    i.pvTaskIncrementMutexHeldCount  tasks.o
    0x00006e24   0x00006e24   0x0000002c   Code   RO         2233    i.pxPortInitialiseStack  port.o
    0x00006e50   0x00006e50   0x0000018c   Code   RO         3436    i.sampDataHandle    bb_algproc.o
    0x00006fdc   0x00006fdc   0x0000001c   Code   RO         2522    i.sendchar          bsp_uart.o
    0x00006ff8   0x00006ff8   0x00000038   Code   RO         3697    i.start_task        main.o
    0x00007030   0x00007030   0x00000094   Code   RO         3219    i.test_dma_ch1_callback  hal_ospi.o
    0x000070c4   0x000070c4   0x0000009c   Code   RO         3220    i.test_dma_ch2_callback  hal_ospi.o
    0x00007160   0x00007160   0x00000074   Code   RO         1659    i.ulTaskNotifyTake  tasks.o
    0x000071d4   0x000071d4   0x00000058   Code   RO         3698    i.userTimerB0CallBackHand  main.o
    0x0000722c   0x0000722c   0x00000028   Code   RO         1343    i.uxListRemove      list.o
    0x00007254   0x00007254   0x0000000c   Code   RO         3699    i.vApplicationIdleHook  main.o
    0x00007260   0x00007260   0x0000001a   Code   RO         1344    i.vListInitialise   list.o
    0x0000727a   0x0000727a   0x00000006   Code   RO         1345    i.vListInitialiseItem  list.o
    0x00007280   0x00007280   0x00000034   Code   RO         1346    i.vListInsert       list.o
    0x000072b4   0x000072b4   0x00000018   Code   RO         1347    i.vListInsertEnd    list.o
    0x000072cc   0x000072cc   0x00000028   Code   RO         2235    i.vPortEnterCritical  port.o
    0x000072f4   0x000072f4   0x00000020   Code   RO         2236    i.vPortExitCritical  port.o
    0x00007314   0x00007314   0x00000048   Code   RO         2173    i.vPortFree         heap_4.o
    0x0000735c   0x0000735c   0x00000020   Code   RO         2237    i.vPortSetupTimerInterrupt  port.o
    0x0000737c   0x0000737c   0x0000002c   Code   RO         1405    i.vQueueAddToRegistry  queue.o
    0x000073a8   0x000073a8   0x0000004a   Code   RO         1409    i.vQueueWaitForMessageRestricted  queue.o
    0x000073f2   0x000073f2   0x00000002   PAD
    0x000073f4   0x000073f4   0x00000034   Code   RO         1666    i.vTaskDelay        tasks.o
    0x00007428   0x00007428   0x000000cc   Code   RO         1668    i.vTaskDelete       tasks.o
    0x000074f4   0x000074f4   0x0000000c   Code   RO         1673    i.vTaskMissedYield  tasks.o
    0x00007500   0x00007500   0x000000b8   Code   RO         1674    i.vTaskNotifyGiveFromISR  tasks.o
    0x000075b8   0x000075b8   0x00000020   Code   RO         1675    i.vTaskPlaceOnEventList  tasks.o
    0x000075d8   0x000075d8   0x00000028   Code   RO         1676    i.vTaskPlaceOnEventListRestricted  tasks.o
    0x00007600   0x00007600   0x000000b0   Code   RO         1678    i.vTaskPriorityInherit  tasks.o
    0x000076b0   0x000076b0   0x00000018   Code   RO         1682    i.vTaskSetTimeOutState  tasks.o
    0x000076c8   0x000076c8   0x0000007c   Code   RO         1683    i.vTaskStartScheduler  tasks.o
    0x00007744   0x00007744   0x00000010   Code   RO         1685    i.vTaskSuspendAll   tasks.o
    0x00007754   0x00007754   0x000000a0   Code   RO         1686    i.vTaskSwitchContext  tasks.o
    0x000077f4   0x000077f4   0x00000048   Code   RO         2238    i.xPortStartScheduler  port.o
    0x0000783c   0x0000783c   0x00000038   Code   RO         2239    i.xPortSysTickHandler  port.o
    0x00007874   0x00007874   0x00000038   Code   RO         1414    i.xQueueGenericCreate  queue.o
    0x000078ac   0x000078ac   0x0000015c   Code   RO         1415    i.xQueueGenericReceive  queue.o
    0x00007a08   0x00007a08   0x00000080   Code   RO         1416    i.xQueueGenericReset  queue.o
    0x00007a88   0x00007a88   0x00000138   Code   RO         1417    i.xQueueGenericSend  queue.o
    0x00007bc0   0x00007bc0   0x000000a0   Code   RO         1418    i.xQueueGenericSendFromISR  queue.o
    0x00007c60   0x00007c60   0x0000005c   Code   RO         1687    i.xTaskCheckForTimeOut  tasks.o
    0x00007cbc   0x00007cbc   0x00000060   Code   RO         1688    i.xTaskCreate       tasks.o
    0x00007d1c   0x00007d1c   0x00000020   Code   RO         1692    i.xTaskGetSchedulerState  tasks.o
    0x00007d3c   0x00007d3c   0x0000000c   Code   RO         1693    i.xTaskGetTickCount  tasks.o
    0x00007d48   0x00007d48   0x0000011c   Code   RO         1695    i.xTaskIncrementTick  tasks.o
    0x00007e64   0x00007e64   0x00000084   Code   RO         1698    i.xTaskPriorityDisinherit  tasks.o
    0x00007ee8   0x00007ee8   0x00000080   Code   RO         1699    i.xTaskRemoveFromEventList  tasks.o
    0x00007f68   0x00007f68   0x000000e8   Code   RO         1701    i.xTaskResumeAll    tasks.o
    0x00008050   0x00008050   0x00000040   Code   RO         2041    i.xTimerCreateTimerTask  timers.o
    0x00008090   0x00008090   0x0000006c   Code   RO         2042    i.xTimerGenericCommand  timers.o
    0x000080fc   0x000080fc   0x00001080   Data   RO         3380    .constdata          radar_config.o
    0x0000917c   0x0000917c   0x0000004e   Data   RO         3824    .conststring        paramconfig.o
    0x000091ca   0x000091ca   0x00000002   PAD
    0x000091cc   0x000091cc   0x00000020   Data   RO         4225    Region$$Table       anon$$obj.o


    Execution Region RW_IRAM1 (Exec base: 0x20000000, Load base: 0x000091ec, Size: 0x000018e8, Max: 0x00004000, ABSOLUTE, COMPRESSED[0x0000005c])

    Exec Addr    Load Addr    Size         Type   Attr      Idx    E Section Name        Object

    0x20000000   COMPRESSED   0x0000002c   Data   RW           40    .data               system_sky32b750.o
    0x2000002c   COMPRESSED   0x00000008   Data   RW          807    .data               efc.o
    0x20000034   COMPRESSED   0x00000044   Data   RW         1704    .data               tasks.o
    0x20000078   COMPRESSED   0x00000014   Data   RW         2050    .data               timers.o
    0x2000008c   COMPRESSED   0x00000018   Data   RW         2178    .data               heap_4.o
    0x200000a4   COMPRESSED   0x00000004   Data   RW         2240    .data               port.o
    0x200000a8   COMPRESSED   0x00000008   Data   RW         2525    .data               bsp_uart.o
    0x200000b0   COMPRESSED   0x0000000c   Data   RW         3095    .data               hal_sysclk.o
    0x200000bc   COMPRESSED   0x00000002   Data   RW         3222    .data               hal_ospi.o
    0x200000be   COMPRESSED   0x00000002   PAD
    0x200000c0   COMPRESSED   0x00000028   Data   RW         3332    .data               bb_config.o
    0x200000e8   COMPRESSED   0x00000038   Data   RW         3381    .data               radar_config.o
    0x20000120   COMPRESSED   0x00000011   Data   RW         3438    .data               bb_algproc.o
    0x20000131   COMPRESSED   0x00000003   PAD
    0x20000134   COMPRESSED   0x00000008   Data   RW         3591    .data               bb_task.o
    0x2000013c   COMPRESSED   0x00000008   Data   RW         3648    .data               printf_task.o
    0x20000144   COMPRESSED   0x00000014   Data   RW         3700    .data               main.o
    0x20000158   COMPRESSED   0x00000008   Data   RW         3877    .data               irq_handler.o
    0x20000160        -       0x00000018   Zero   RW          563    .bss                dma.o
    0x20000178        -       0x00000040   Zero   RW         1430    .bss                queue.o
    0x200001b8        -       0x000000c8   Zero   RW         1703    .bss                tasks.o
    0x20000280        -       0x00000028   Zero   RW         2049    .bss                timers.o
    0x200002a8        -       0x00000048   Zero   RW         2385    .bss                bsp_spi.o
    0x200002f0        -       0x0000006c   Zero   RW         2524    .bss                bsp_uart.o
    0x2000035c        -       0x00000014   Zero   RW         2799    .bss                hal_rf.o
    0x20000370        -       0x00000020   Zero   RW         3221    .bss                hal_ospi.o
    0x20000390        -       0x0000017e   Zero   RW         3282    .bss                rf_config.o
    0x2000050e   COMPRESSED   0x00000002   PAD
    0x20000510        -       0x00000188   Zero   RW         3331    .bss                bb_config.o
    0x20000698        -       0x000001f4   Zero   RW         3379    .bss                radar_config.o
    0x2000088c   COMPRESSED   0x00000004   PAD
    0x20000890        -       0x00000020   Zero   RW         3768    .bss                usart_protocol.o
    0x200008b0        -       0x00000034   Zero   RW         3823    .bss                paramconfig.o
    0x200008e4   COMPRESSED   0x00000004   PAD
    0x200008e8        -       0x00001000   Zero   RW            1    STACK               startup_sky32b750.o



  Load Region LR$$.ARM.__AT_0x20004000 (Base: 0x20004000, Size: 0x00000000, Max: 0x00003800, ABSOLUTE)

    Execution Region ER$$.ARM.__AT_0x20004000 (Exec base: 0x20004000, Load base: 0x20004000, Size: 0x00003800, Max: 0x00003800, ABSOLUTE, UNINIT)

    Exec Addr    Load Addr    Size         Type   Attr      Idx    E Section Name        Object

    0x20004000        -       0x00003800   Zero   RW         2177    .ARM.__AT_0x20004000  heap_4.o


==============================================================================

Image component sizes


      Code (inc. data)   RO Data    RW Data    ZI Data      Debug   Object Name

      1352        192          0         17          0       3951   bb_algproc.o
      1268         68          0         40        392       4765   bb_config.o
       184         48          0          8          0       2599   bb_task.o
       180         12          0          0          0        623   bsp_adc.o
       112         16          0          0          0       1161   bsp_gpio.o
       216         28          0          0         72      32592   bsp_spi.o
       438         78          0          8        108      42259   bsp_uart.o
         0          0          0          0          0      10216   croutine.o
         0          0          0          0          0      97308   delay.o
       956         60          0          0         24      12511   dma.o
       520         40          0          8          0       3836   efc.o
         0          0          0          0          0      11980   event_groups.o
        64          6          0          0          0        751   fadc.o
       364         18          0          0          0       2708   gpio.o
      1338         54          0          0          0       8055   hal_bb.o
        62          8          0          0          0       1246   hal_delay.o
       112         10          0          0          0      36737   hal_dma.o
       948         34          0          0          0      37726   hal_mpu.o
      1512         72          0          2         32       4898   hal_ospi.o
      2180        206          0          0         20      12371   hal_rf.o
       102          8          0         12          0       2640   hal_sysclk.o
       218         20          0          0          0      38279   hal_timer.o
        28          6          0          0          0        545   hal_wdt.o
       508         62          0         24      14336       4371   heap_4.o
        64         16          0          8          0       1721   irq_handler.o
       148          0          0          0          0       3666   list.o
       488         94          0         20          0      40306   main.o
         0          0          0          0          0       3696   mpu.o
       150          0          0          0          0       2373   ospi.o
       998        264         78          0         52       5655   paramconfig.o
       328          8          0          0          0       1429   pinmux.o
       488         58          0          4          0      10436   port.o
        84         28          0          8          0       2519   printf_task.o
      1618         22          0          0         64      16973   queue.o
      2580        108       4224         56        500      44394   radar_config.o
      1634         28          0          0        382       2818   rf_config.o
        36          8        224          0       4096       1004   startup_sky32b750.o
       606         64          0         44          0     126965   system_sky32b750.o
      2980        446          0         68        200      33651   tasks.o
       624         24          0          0          0      39856   timerb.o
      1002        116          0         20         40       9743   timers.o
      3896        378          0          0         32       5880   usart_protocol.o
       690         18          0          0          0       6187   usci.o
       104         32          0          0          0       1123   wdt.o

    ----------------------------------------------------------------------
     31212       2758       4560        352      20360     734523   Object Totals
         0          0         32          0          0          0   (incl. Generated)
        32          0          2          5         10          0   (incl. Padding)

    ----------------------------------------------------------------------

      Code (inc. data)   RO Data    RW Data    ZI Data      Debug   Library Member Name

        86          0          0          0          0          0   __dczerorl2.o
         0          0          0          0          0          0   entry.o
         0          0          0          0          0          0   entry10a.o
         0          0          0          0          0          0   entry11a.o
         4          0          0          0          0          0   entry12b.o
         8          4          0          0          0          0   entry2.o
         4          0          0          0          0          0   entry5.o
         0          0          0          0          0          0   entry7b.o
         0          0          0          0          0          0   entry8b.o
         8          4          0          0          0          0   entry9a.o
        30          0          0          0          0          0   handlers.o
        36          8          0          0          0         68   init.o
        30          0          0          0          0         68   llshl.o
        32          0          0          0          0         68   llushr.o
        26          0          0          0          0         80   memcmp.o
        36          0          0          0          0         68   memcpya.o
        36          0          0          0          0        108   memseta.o
      1142         54          0          0          0        352   printf8.o
        98          0          0          0          0         92   uldiv.o

    ----------------------------------------------------------------------
      1584         70          0          0          0        904   Library Totals
         8          0          0          0          0          0   (incl. Padding)

    ----------------------------------------------------------------------

      Code (inc. data)   RO Data    RW Data    ZI Data      Debug   Library Name

      1576         70          0          0          0        904   mc_w.l

    ----------------------------------------------------------------------
      1584         70          0          0          0        904   Library Totals

    ----------------------------------------------------------------------

==============================================================================


      Code (inc. data)   RO Data    RW Data    ZI Data      Debug   

     32796       2828       4560        352      20360     715395   Grand Totals
     32796       2828       4560         92      20360     715395   ELF Image Totals (compressed)
     32796       2828       4560         92          0          0   ROM Totals

==============================================================================

    Total RO  Size (Code + RO Data)                37356 (  36.48kB)
    Total RW  Size (RW Data + ZI Data)             20712 (  20.23kB)
    Total ROM Size (Code + RO Data + RW Data)      37448 (  36.57kB)

==============================================================================

